GAS LISTING /tmp/ccx6Q4BH.s 			page 1


   1              		.file	"Blocked.cpp"
   2              		.option pic
   3              		.option norelax
   4              		.text
   5              	.Ltext0:
   6              		.align	2
   7              		.globl	_ZN7Blocked3getEv
   9              	_ZN7Blocked3getEv:
  10              	.LFB21:
  11              		.file 1 "src/Blocked.cpp"
   1:src/Blocked.cpp **** #include "../h/Blocked.hpp"
   2:src/Blocked.cpp **** 
   3:src/Blocked.cpp **** TCB *Blocked::get() {
  12              		.loc 1 3 21
  13              		.cfi_startproc
  14              	.LVL0:
  15 0000 130101FE 		addi	sp,sp,-32
  16              		.cfi_def_cfa_offset 32
  17 0004 233C1100 		sd	ra,24(sp)
  18 0008 23388100 		sd	s0,16(sp)
  19 000c 23349100 		sd	s1,8(sp)
  20              		.cfi_offset 1, -8
  21              		.cfi_offset 8, -16
  22              		.cfi_offset 9, -24
  23 0010 13040102 		addi	s0,sp,32
  24              		.cfi_def_cfa 8, 0
  25 0014 93070500 		mv	a5,a0
   4:src/Blocked.cpp ****     if(!head) return nullptr;
  26              		.loc 1 4 5
  27              		.loc 1 4 9 is_stmt 0
  28 0018 03350500 		ld	a0,0(a0)
  29              	.LVL1:
  30              		.loc 1 4 5
  31 001c 630E0502 		beqz	a0,.L4
   5:src/Blocked.cpp ****     Elem *elem = head;
  32              		.loc 1 5 5 is_stmt 1
  33              	.LVL2:
   6:src/Blocked.cpp ****     TCB *ret = elem->thread;
  34              		.loc 1 6 5
  35              		.loc 1 6 10 is_stmt 0
  36 0020 83340500 		ld	s1,0(a0)
  37              	.LVL3:
   7:src/Blocked.cpp ****     head = head->next;
  38              		.loc 1 7 5 is_stmt 1
  39              		.loc 1 7 18 is_stmt 0
  40 0024 03378500 		ld	a4,8(a0)
  41              		.loc 1 7 10
  42 0028 23B0E700 		sd	a4,0(a5)
   8:src/Blocked.cpp ****     if(!head) tail = nullptr;
  43              		.loc 1 8 5 is_stmt 1
  44 002c 63020702 		beqz	a4,.L6
  45              	.L3:
   9:src/Blocked.cpp ****     delete elem;
  46              		.loc 1 9 5
  47              		.loc 1 9 12 is_stmt 0
  48 0030 97000000 		call	_ZdlPv@plt
  48      E7800000 
GAS LISTING /tmp/ccx6Q4BH.s 			page 2


  49              	.LVL4:
  10:src/Blocked.cpp ****     return ret;
  50              		.loc 1 10 5 is_stmt 1
  51              	.L1:
  11:src/Blocked.cpp **** }
  52              		.loc 1 11 1 is_stmt 0
  53 0038 13850400 		mv	a0,s1
  54 003c 83308101 		ld	ra,24(sp)
  55              		.cfi_remember_state
  56              		.cfi_restore 1
  57 0040 03340101 		ld	s0,16(sp)
  58              		.cfi_restore 8
  59              		.cfi_def_cfa 2, 32
  60 0044 83348100 		ld	s1,8(sp)
  61              		.cfi_restore 9
  62 0048 13010102 		addi	sp,sp,32
  63              		.cfi_def_cfa_offset 0
  64 004c 67800000 		jr	ra
  65              	.LVL5:
  66              	.L6:
  67              		.cfi_restore_state
   8:src/Blocked.cpp ****     delete elem;
  68              		.loc 1 8 15 is_stmt 1 discriminator 1
   8:src/Blocked.cpp ****     delete elem;
  69              		.loc 1 8 20 is_stmt 0 discriminator 1
  70 0050 23B40700 		sd	zero,8(a5)
  71 0054 6FF0DFFD 		j	.L3
  72              	.LVL6:
  73              	.L4:
   4:src/Blocked.cpp ****     Elem *elem = head;
  74              		.loc 1 4 22
  75 0058 93040500 		mv	s1,a0
  76 005c 6FF0DFFD 		j	.L1
  77              		.cfi_endproc
  78              	.LFE21:
  80              		.align	2
  81              		.globl	_ZN7Blocked3putEP3TCB
  83              	_ZN7Blocked3putEP3TCB:
  84              	.LFB22:
  12:src/Blocked.cpp **** 
  13:src/Blocked.cpp **** void Blocked::put(TCB *t) {
  85              		.loc 1 13 27 is_stmt 1
  86              		.cfi_startproc
  87              	.LVL7:
  88 0060 130101FE 		addi	sp,sp,-32
  89              		.cfi_def_cfa_offset 32
  90 0064 233C1100 		sd	ra,24(sp)
  91 0068 23388100 		sd	s0,16(sp)
  92 006c 23349100 		sd	s1,8(sp)
  93 0070 23302101 		sd	s2,0(sp)
  94              		.cfi_offset 1, -8
  95              		.cfi_offset 8, -16
  96              		.cfi_offset 9, -24
  97              		.cfi_offset 18, -32
  98 0074 13040102 		addi	s0,sp,32
  99              		.cfi_def_cfa 8, 0
 100 0078 93040500 		mv	s1,a0
GAS LISTING /tmp/ccx6Q4BH.s 			page 3


 101 007c 13890500 		mv	s2,a1
  14:src/Blocked.cpp ****     Elem *newElem = new Elem(t, nullptr);
 102              		.loc 1 14 5
 103              		.loc 1 14 40 is_stmt 0
 104 0080 13050001 		li	a0,16
 105              	.LVL8:
 106 0084 97000000 		call	_Znwm@plt
 106      E7800000 
 107              	.LVL9:
 108              	.LBB5:
 109              	.LBB6:
 110              		.file 2 "src/../h/Blocked.hpp"
   1:src/../h/Blocked.hpp **** #ifndef PROJECT_BASE_BLOCKED_HPP
   2:src/../h/Blocked.hpp **** #define PROJECT_BASE_BLOCKED_HPP
   3:src/../h/Blocked.hpp **** 
   4:src/../h/Blocked.hpp **** #include "TCB.hpp"
   5:src/../h/Blocked.hpp **** 
   6:src/../h/Blocked.hpp **** class Blocked {
   7:src/../h/Blocked.hpp **** public:
   8:src/../h/Blocked.hpp ****     struct Elem {
   9:src/../h/Blocked.hpp ****         TCB *thread;
  10:src/../h/Blocked.hpp ****         Elem *next = nullptr;
  11:src/../h/Blocked.hpp ****         Elem(TCB *t, Elem *n) : thread(t), next(n) {}
 111              		.loc 2 11 50
 112 008c 23302501 		sd	s2,0(a0)
 113 0090 23340500 		sd	zero,8(a0)
 114              	.LVL10:
 115              	.LBE6:
 116              	.LBE5:
  15:src/Blocked.cpp ****     if(!head) { head = tail = newElem; }
 117              		.loc 1 15 5 is_stmt 1
 118              		.loc 1 15 9 is_stmt 0
 119 0094 83B70400 		ld	a5,0(s1)
 120              		.loc 1 15 5
 121 0098 63880702 		beqz	a5,.L11
  16:src/Blocked.cpp ****     else {
  17:src/Blocked.cpp ****         tail->next = newElem;
 122              		.loc 1 17 9 is_stmt 1
 123 009c 83B78400 		ld	a5,8(s1)
 124              		.loc 1 17 20 is_stmt 0
 125 00a0 23B4A700 		sd	a0,8(a5)
  18:src/Blocked.cpp ****         tail = tail->next;
 126              		.loc 1 18 9 is_stmt 1
 127              		.loc 1 18 16 is_stmt 0
 128 00a4 83B78400 		ld	a5,8(s1)
 129              		.loc 1 18 22
 130 00a8 83B78700 		ld	a5,8(a5)
 131              		.loc 1 18 14
 132 00ac 23B4F400 		sd	a5,8(s1)
 133              	.L7:
  19:src/Blocked.cpp ****     }
  20:src/Blocked.cpp **** }
 134              		.loc 1 20 1
 135 00b0 83308101 		ld	ra,24(sp)
 136              		.cfi_remember_state
 137              		.cfi_restore 1
 138 00b4 03340101 		ld	s0,16(sp)
GAS LISTING /tmp/ccx6Q4BH.s 			page 4


 139              		.cfi_restore 8
 140              		.cfi_def_cfa 2, 32
 141 00b8 83348100 		ld	s1,8(sp)
 142              		.cfi_restore 9
 143              	.LVL11:
 144 00bc 03390100 		ld	s2,0(sp)
 145              		.cfi_restore 18
 146              	.LVL12:
 147 00c0 13010102 		addi	sp,sp,32
 148              		.cfi_def_cfa_offset 0
 149 00c4 67800000 		jr	ra
 150              	.LVL13:
 151              	.L11:
 152              		.cfi_restore_state
  15:src/Blocked.cpp ****     else {
 153              		.loc 1 15 17 is_stmt 1 discriminator 1
  15:src/Blocked.cpp ****     else {
 154              		.loc 1 15 29 is_stmt 0 discriminator 1
 155 00c8 23B4A400 		sd	a0,8(s1)
  15:src/Blocked.cpp ****     else {
 156              		.loc 1 15 22 discriminator 1
 157 00cc 23B0A400 		sd	a0,0(s1)
 158 00d0 6FF01FFE 		j	.L7
 159              		.cfi_endproc
 160              	.LFE22:
 162              	.Letext0:
 163              		.file 3 "src/../h/../lib/hw.h"
 164              		.file 4 "src/../h/TCB.hpp"
GAS LISTING /tmp/ccx6Q4BH.s 			page 5

