GAS LISTING /tmp/ccV4FST4.s 			page 1


   1              		.file	"main.cpp"
   2              		.option pic
   3              		.option norelax
   4              		.text
   5              	.Ltext0:
   6              		.align	2
   7              		.globl	_Z6outputPv
   9              	_Z6outputPv:
  10              	.LFB33:
  11              		.file 1 "src/main.cpp"
   1:src/main.cpp  **** #include "../h/syscall_cpp.hpp"
   2:src/main.cpp  **** extern "C" void interruptTable();
   3:src/main.cpp  **** extern void userMain();
   4:src/main.cpp  **** 
   5:src/main.cpp  **** void output(void *p) {
  12              		.loc 1 5 22
  13              		.cfi_startproc
  14              	.LVL0:
  15              	.L5:
   6:src/main.cpp  ****     while(true) {
  16              		.loc 1 6 5
  17              	.LBB2:
   7:src/main.cpp  ****         while(CONSOLE_TX_STATUS_BIT & *((char*)(CONSOLE_STATUS))) {
  18              		.loc 1 7 9
  19              		.loc 1 7 64
  20              		.loc 1 7 39 is_stmt 0
  21 0000 97070000 		la	a5,CONSOLE_STATUS
  21      83B70700 
  22 0008 83B70700 		ld	a5,0(a5)
  23 000c 83C70700 		lbu	a5,0(a5)
  24              		.loc 1 7 64
  25 0010 93F70702 		andi	a5,a5,32
  26 0014 E38607FE 		beqz	a5,.L5
  27              	.LBE2:
   5:src/main.cpp  ****     while(true) {
  28              		.loc 1 5 22
  29 0018 130101FF 		addi	sp,sp,-16
  30              		.cfi_def_cfa_offset 16
  31 001c 23341100 		sd	ra,8(sp)
  32 0020 23308100 		sd	s0,0(sp)
  33              		.cfi_offset 1, -8
  34              		.cfi_offset 8, -16
  35 0024 13040101 		addi	s0,sp,16
  36              		.cfi_def_cfa 8, 0
  37              	.LVL1:
  38              	.L6:
  39              	.LBB4:
  40              	.LBB3:
   8:src/main.cpp  ****             char c = Cons::getcO();
  41              		.loc 1 8 13 is_stmt 1
  42              		.loc 1 8 33 is_stmt 0
  43 0028 97000000 		call	_ZN4Cons5getcOEv@plt
  43      E7800000 
  44              	.LVL2:
   9:src/main.cpp  ****             *((char*) CONSOLE_TX_DATA) = c;
  45              		.loc 1 9 13 is_stmt 1
  46 0030 97070000 		la	a5,CONSOLE_TX_DATA
GAS LISTING /tmp/ccV4FST4.s 			page 2


  46      83B70700 
  47 0038 83B70700 		ld	a5,0(a5)
  48              		.loc 1 9 40 is_stmt 0
  49 003c 2380A700 		sb	a0,0(a5)
  50              	.L2:
  51              	.LBE3:
  52              	.LBE4:
   6:src/main.cpp  ****         while(CONSOLE_TX_STATUS_BIT & *((char*)(CONSOLE_STATUS))) {
  53              		.loc 1 6 5 is_stmt 1
  54              	.LBB5:
   7:src/main.cpp  ****             char c = Cons::getcO();
  55              		.loc 1 7 9
   7:src/main.cpp  ****             char c = Cons::getcO();
  56              		.loc 1 7 64
   7:src/main.cpp  ****             char c = Cons::getcO();
  57              		.loc 1 7 39 is_stmt 0
  58 0040 97070000 		la	a5,CONSOLE_STATUS
  58      83B70700 
  59 0048 83B70700 		ld	a5,0(a5)
  60 004c 83C70700 		lbu	a5,0(a5)
   7:src/main.cpp  ****             char c = Cons::getcO();
  61              		.loc 1 7 64
  62 0050 93F70702 		andi	a5,a5,32
  63 0054 E38607FE 		beqz	a5,.L2
  64 0058 6FF01FFD 		j	.L6
  65              	.LBE5:
  66              		.cfi_endproc
  67              	.LFE33:
  69              		.align	2
  70              		.globl	_Z4idlePv
  72              	_Z4idlePv:
  73              	.LFB34:
  10:src/main.cpp  ****         }
  11:src/main.cpp  ****     }
  12:src/main.cpp  **** }
  13:src/main.cpp  **** 
  14:src/main.cpp  **** void idle(void *p) {
  74              		.loc 1 14 20 is_stmt 1
  75              		.cfi_startproc
  76              	.LVL3:
  77 005c 130101FF 		addi	sp,sp,-16
  78              		.cfi_def_cfa_offset 16
  79 0060 23341100 		sd	ra,8(sp)
  80 0064 23308100 		sd	s0,0(sp)
  81              		.cfi_offset 1, -8
  82              		.cfi_offset 8, -16
  83 0068 13040101 		addi	s0,sp,16
  84              		.cfi_def_cfa 8, 0
  85              	.LVL4:
  86              	.L8:
  15:src/main.cpp  ****     while(true){ thread_dispatch(); }
  87              		.loc 1 15 5 discriminator 1
  88              		.loc 1 15 18 discriminator 1
  89              		.loc 1 15 33 is_stmt 0 discriminator 1
  90 006c 97000000 		call	_Z15thread_dispatchv@plt
  90      E7800000 
  91              	.LVL5:
GAS LISTING /tmp/ccV4FST4.s 			page 3


  92              		.loc 1 15 5 is_stmt 1 discriminator 1
  93 0074 6FF09FFF 		j	.L8
  94              		.cfi_endproc
  95              	.LFE34:
  97              		.align	2
  98              		.globl	_Z15userMainWrapperPv
 100              	_Z15userMainWrapperPv:
 101              	.LFB35:
  16:src/main.cpp  **** }
  17:src/main.cpp  **** 
  18:src/main.cpp  **** bool mainFinished = false;
  19:src/main.cpp  **** 
  20:src/main.cpp  **** void userMainWrapper(void *p) {
 102              		.loc 1 20 31
 103              		.cfi_startproc
 104              	.LVL6:
 105 0078 130101FF 		addi	sp,sp,-16
 106              		.cfi_def_cfa_offset 16
 107 007c 23341100 		sd	ra,8(sp)
 108 0080 23308100 		sd	s0,0(sp)
 109              		.cfi_offset 1, -8
 110              		.cfi_offset 8, -16
 111 0084 13040101 		addi	s0,sp,16
 112              		.cfi_def_cfa 8, 0
  21:src/main.cpp  ****     userMain();
 113              		.loc 1 21 5
 114              		.loc 1 21 13 is_stmt 0
 115 0088 97000000 		call	_Z8userMainv@plt
 115      E7800000 
 116              	.LVL7:
  22:src/main.cpp  ****     mainFinished = true;
 117              		.loc 1 22 5 is_stmt 1
 118              		.loc 1 22 18 is_stmt 0
 119 0090 93071000 		li	a5,1
 120 0094 17070000 		sb	a5,.LANCHOR0,a4
 120      2300F700 
  23:src/main.cpp  **** }
 121              		.loc 1 23 1
 122 009c 83308100 		ld	ra,8(sp)
 123              		.cfi_restore 1
 124 00a0 03340100 		ld	s0,0(sp)
 125              		.cfi_restore 8
 126              		.cfi_def_cfa 2, 16
 127 00a4 13010101 		addi	sp,sp,16
 128              		.cfi_def_cfa_offset 0
 129 00a8 67800000 		jr	ra
 130              		.cfi_endproc
 131              	.LFE35:
 133              		.align	2
 134              		.globl	main
 136              	main:
 137              	.LFB36:
  24:src/main.cpp  **** 
  25:src/main.cpp  **** void main() {
 138              		.loc 1 25 13 is_stmt 1
 139              		.cfi_startproc
 140 00ac 130101FC 		addi	sp,sp,-64
GAS LISTING /tmp/ccV4FST4.s 			page 4


 141              		.cfi_def_cfa_offset 64
 142 00b0 233C1102 		sd	ra,56(sp)
 143 00b4 23388102 		sd	s0,48(sp)
 144 00b8 23349102 		sd	s1,40(sp)
 145              		.cfi_offset 1, -8
 146              		.cfi_offset 8, -16
 147              		.cfi_offset 9, -24
 148 00bc 13040104 		addi	s0,sp,64
 149              		.cfi_def_cfa 8, 0
  26:src/main.cpp  ****     __asm__ volatile ("csrw stvec, %0" : : "r" ((uint64)&interruptTable + 1));
 150              		.loc 1 26 5
 151              		.loc 1 26 73 is_stmt 0
 152 00c0 97070000 		la	a5,interruptTable
 152      83B70700 
 153 00c8 93871700 		addi	a5,a5,1
 154              		.loc 1 26 78
 155              	#APP
 156              	# 26 "src/main.cpp" 1
  27              	
  28:src/main.cpp  ****     TCB *mainHandle;
 157              		csrw stvec, a5
 158              	# 0 "" 2
 159              		.loc 1 28 5 is_stmt 1
  29:src/main.cpp  ****     thread_create(&mainHandle, nullptr, nullptr);
 160              		.loc 1 29 5
 161              		.loc 1 29 18 is_stmt 0
 162              	#NO_APP
 163 00d0 13060000 		li	a2,0
 164 00d4 93050000 		li	a1,0
 165 00d8 130584FD 		addi	a0,s0,-40
 166 00dc 97000000 		call	_Z13thread_createPP3TCBPFvPvES2_@plt
 166      E7800000 
 167              	.LVL8:
  30:src/main.cpp  ****     TCB::running = mainHandle;
 168              		.loc 1 30 5 is_stmt 1
 169              		.loc 1 30 18 is_stmt 0
 170 00e4 97070000 		la	a5,_ZN3TCB7runningE
 170      83B70700 
 171 00ec 033784FD 		ld	a4,-40(s0)
 172 00f0 23B0E700 		sd	a4,0(a5)
  31:src/main.cpp  ****     TCB *idleHandle;
 173              		.loc 1 31 5 is_stmt 1
  32:src/main.cpp  ****     thread_create(&idleHandle, idle, nullptr);
 174              		.loc 1 32 5
 175              		.loc 1 32 18 is_stmt 0
 176 00f4 13060000 		li	a2,0
 177 00f8 97050000 		lla	a1,_Z4idlePv
 177      93850500 
 178 0100 130504FD 		addi	a0,s0,-48
 179 0104 97000000 		call	_Z13thread_createPP3TCBPFvPvES2_@plt
 179      E7800000 
 180              	.LVL9:
  33:src/main.cpp  ****     TCB *outputHandle;
 181              		.loc 1 33 5 is_stmt 1
  34:src/main.cpp  ****     thread_create(&outputHandle, output, nullptr);
 182              		.loc 1 34 5
 183              		.loc 1 34 18 is_stmt 0
GAS LISTING /tmp/ccV4FST4.s 			page 5


 184 010c 13060000 		li	a2,0
 185 0110 97050000 		lla	a1,_Z6outputPv
 185      93850500 
 186 0118 130584FC 		addi	a0,s0,-56
 187 011c 97000000 		call	_Z13thread_createPP3TCBPFvPvES2_@plt
 187      E7800000 
 188              	.LVL10:
  35:src/main.cpp  **** 
  36:src/main.cpp  ****     TCB::userMode = true;
 189              		.loc 1 36 5 is_stmt 1
 190              		.loc 1 36 19 is_stmt 0
 191 0124 97070000 		la	a5,_ZN3TCB8userModeE
 191      83B70700 
 192 012c 13071000 		li	a4,1
 193 0130 2380E700 		sb	a4,0(a5)
  37:src/main.cpp  ****     TCB *userMainHandle;
 194              		.loc 1 37 5 is_stmt 1
  38:src/main.cpp  ****     thread_create(&userMainHandle, userMainWrapper, nullptr);
 195              		.loc 1 38 5
 196              		.loc 1 38 18 is_stmt 0
 197 0134 13060000 		li	a2,0
 198 0138 97050000 		lla	a1,_Z15userMainWrapperPv
 198      93850500 
 199 0140 130504FC 		addi	a0,s0,-64
 200 0144 97000000 		call	_Z13thread_createPP3TCBPFvPvES2_@plt
 200      E7800000 
 201              	.LVL11:
  39:src/main.cpp  **** 
  40:src/main.cpp  ****     int maskSSTATUS_SIE = 1 << 1;
 202              		.loc 1 40 5 is_stmt 1
  41:src/main.cpp  ****     __asm__ volatile ("csrs sstatus, %0" : : "r"(maskSSTATUS_SIE));
 203              		.loc 1 41 5
 204              		.loc 1 41 67 is_stmt 0
 205 014c 93072000 		li	a5,2
 206              	#APP
 207              	# 41 "src/main.cpp" 1
  42              	    while(!mainFinished) {
 208              		csrs sstatus, a5
 209              	# 0 "" 2
 210              	#NO_APP
 211              	.L14:
 212              		.loc 1 42 5 is_stmt 1
 213              		.loc 1 42 11
 214 0154 97070000 		lbu	a5,.LANCHOR0
 214      83C70700 
 215 015c 63980700 		bnez	a5,.L13
  43:src/main.cpp  ****         thread_dispatch();
 216              		.loc 1 43 9
 217              		.loc 1 43 24 is_stmt 0
 218 0160 97000000 		call	_Z15thread_dispatchv@plt
 218      E7800000 
 219              	.LVL12:
 220 0168 6FF0DFFE 		j	.L14
 221              	.L13:
  44:src/main.cpp  ****     }
  45:src/main.cpp  ****     TCB::userMode = false;
 222              		.loc 1 45 5 is_stmt 1
GAS LISTING /tmp/ccV4FST4.s 			page 6


 223              		.loc 1 45 19 is_stmt 0
 224 016c 97070000 		la	a5,_ZN3TCB8userModeE
 224      83B70700 
 225 0174 23800700 		sb	zero,0(a5)
  46:src/main.cpp  **** 
  47:src/main.cpp  ****     Cons::dest();
 226              		.loc 1 47 5 is_stmt 1
 227              		.loc 1 47 15 is_stmt 0
 228 0178 97000000 		call	_ZN4Cons4destEv@plt
 228      E7800000 
 229              	.LVL13:
  48:src/main.cpp  ****     thread_dispatch();
 230              		.loc 1 48 5 is_stmt 1
 231              		.loc 1 48 20 is_stmt 0
 232 0180 97000000 		call	_Z15thread_dispatchv@plt
 232      E7800000 
 233              	.LVL14:
  49:src/main.cpp  ****     delete idleHandle;
 234              		.loc 1 49 5 is_stmt 1
 235              		.loc 1 49 12 is_stmt 0
 236 0188 833404FD 		ld	s1,-48(s0)
 237              		.loc 1 49 22
 238 018c 638E0400 		beqz	s1,.L15
 239              		.loc 1 49 12 discriminator 1
 240 0190 13850400 		mv	a0,s1
 241 0194 97000000 		call	_ZN3TCBD1Ev@plt
 241      E7800000 
 242              	.LVL15:
 243 019c 13850400 		mv	a0,s1
 244 01a0 97000000 		call	_ZdlPv@plt
 244      E7800000 
 245              	.LVL16:
 246              	.L15:
  50:src/main.cpp  ****     delete userMainHandle;
 247              		.loc 1 50 5 is_stmt 1
 248              		.loc 1 50 12 is_stmt 0
 249 01a8 833404FC 		ld	s1,-64(s0)
 250              		.loc 1 50 26
 251 01ac 638E0400 		beqz	s1,.L16
 252              		.loc 1 50 12 discriminator 1
 253 01b0 13850400 		mv	a0,s1
 254 01b4 97000000 		call	_ZN3TCBD1Ev@plt
 254      E7800000 
 255              	.LVL17:
 256 01bc 13850400 		mv	a0,s1
 257 01c0 97000000 		call	_ZdlPv@plt
 257      E7800000 
 258              	.LVL18:
 259              	.L16:
  51:src/main.cpp  ****     delete outputHandle;
 260              		.loc 1 51 5 is_stmt 1
 261              		.loc 1 51 12 is_stmt 0
 262 01c8 833484FC 		ld	s1,-56(s0)
 263              		.loc 1 51 24
 264 01cc 638E0400 		beqz	s1,.L17
 265              		.loc 1 51 12 discriminator 1
 266 01d0 13850400 		mv	a0,s1
GAS LISTING /tmp/ccV4FST4.s 			page 7


 267 01d4 97000000 		call	_ZN3TCBD1Ev@plt
 267      E7800000 
 268              	.LVL19:
 269 01dc 13850400 		mv	a0,s1
 270 01e0 97000000 		call	_ZdlPv@plt
 270      E7800000 
 271              	.LVL20:
 272              	.L17:
  52:src/main.cpp  ****     delete mainHandle;
 273              		.loc 1 52 5 is_stmt 1
 274              		.loc 1 52 12 is_stmt 0
 275 01e8 833484FD 		ld	s1,-40(s0)
 276              		.loc 1 52 22
 277 01ec 638E0400 		beqz	s1,.L12
 278              		.loc 1 52 12 discriminator 1
 279 01f0 13850400 		mv	a0,s1
 280 01f4 97000000 		call	_ZN3TCBD1Ev@plt
 280      E7800000 
 281              	.LVL21:
 282 01fc 13850400 		mv	a0,s1
 283 0200 97000000 		call	_ZdlPv@plt
 283      E7800000 
 284              	.LVL22:
 285              	.L12:
  53:src/main.cpp  **** }...
 286              		.loc 1 53 1
 287 0208 83308103 		ld	ra,56(sp)
 288              		.cfi_restore 1
 289 020c 03340103 		ld	s0,48(sp)
 290              		.cfi_restore 8
 291              		.cfi_def_cfa 2, 64
 292 0210 83348102 		ld	s1,40(sp)
 293              		.cfi_restore 9
 294 0214 13010104 		addi	sp,sp,64
 295              		.cfi_def_cfa_offset 0
 296 0218 67800000 		jr	ra
 297              		.cfi_endproc
 298              	.LFE36:
 300              		.globl	mainFinished
 301              		.bss
 302              		.set	.LANCHOR0,. + 0
 305              	mainFinished:
 306 0000 00       		.zero	1
 307              		.text
 308              	.Letext0:
 309              		.file 2 "src/../h/../lib/hw.h"
 310              		.file 3 "src/../h/../h/TCB.hpp"
 311              		.file 4 "src/../h/../h/Blocked.hpp"
 312              		.file 5 "src/../h/../h/Sem.hpp"
 313              		.file 6 "src/../h/../h/Cons.hpp"
 314              		.file 7 "src/../h/syscall_c.hpp"
 315              		.file 8 "src/../h/syscall_cpp.hpp"
GAS LISTING /tmp/ccV4FST4.s 			page 8

