GAS LISTING /tmp/cck1kkGs.s 			page 1


   1              		.file	"Scheduler.cpp"
   2              		.option pic
   3              		.option norelax
   4              		.text
   5              	.Ltext0:
   6              		.align	2
   7              		.globl	_ZN9Scheduler3getEv
   9              	_ZN9Scheduler3getEv:
  10              	.LFB18:
  11              		.file 1 "src/Scheduler.cpp"
   1:src/Scheduler.cpp **** #include "../h/Scheduler.hpp"
   2:src/Scheduler.cpp **** 
   3:src/Scheduler.cpp **** Scheduler::Elem* Scheduler::head = nullptr;
   4:src/Scheduler.cpp **** Scheduler::Elem* Scheduler::tail = nullptr;
   5:src/Scheduler.cpp **** 
   6:src/Scheduler.cpp **** TCB *Scheduler::get() {
  12              		.loc 1 6 23
  13              		.cfi_startproc
  14 0000 130101FE 		addi	sp,sp,-32
  15              		.cfi_def_cfa_offset 32
  16 0004 233C1100 		sd	ra,24(sp)
  17 0008 23388100 		sd	s0,16(sp)
  18 000c 23349100 		sd	s1,8(sp)
  19              		.cfi_offset 1, -8
  20              		.cfi_offset 8, -16
  21              		.cfi_offset 9, -24
  22 0010 13040102 		addi	s0,sp,32
  23              		.cfi_def_cfa 8, 0
   7:src/Scheduler.cpp ****     if(!head) return nullptr;
  24              		.loc 1 7 5
  25              		.loc 1 7 8 is_stmt 0
  26 0014 17050000 		ld	a0,.LANCHOR0
  26      03350500 
  27              		.loc 1 7 5
  28 001c 63020504 		beqz	a0,.L4
   8:src/Scheduler.cpp ****     Elem *elem = head;
  29              		.loc 1 8 5 is_stmt 1
  30              	.LVL0:
   9:src/Scheduler.cpp ****     TCB *ret = elem->thread;
  31              		.loc 1 9 5
  32              		.loc 1 9 10 is_stmt 0
  33 0020 83340500 		ld	s1,0(a0)
  34              	.LVL1:
  10:src/Scheduler.cpp ****     head = head->next;
  35              		.loc 1 10 5 is_stmt 1
  36              		.loc 1 10 18 is_stmt 0
  37 0024 83378500 		ld	a5,8(a0)
  38              		.loc 1 10 10
  39 0028 17070000 		sd	a5,.LANCHOR0,a4
  39      2330F700 
  11:src/Scheduler.cpp ****     if(!head) tail = nullptr;
  40              		.loc 1 11 5 is_stmt 1
  41 0030 63820702 		beqz	a5,.L6
  42              	.L3:
  12:src/Scheduler.cpp ****     delete elem;
  43              		.loc 1 12 5
  44              		.loc 1 12 12 is_stmt 0
GAS LISTING /tmp/cck1kkGs.s 			page 2


  45 0034 97000000 		call	_ZdlPv@plt
  45      E7800000 
  46              	.LVL2:
  13:src/Scheduler.cpp ****     return ret;
  47              		.loc 1 13 5 is_stmt 1
  48              	.L1:
  14:src/Scheduler.cpp **** }
  49              		.loc 1 14 1 is_stmt 0
  50 003c 13850400 		mv	a0,s1
  51 0040 83308101 		ld	ra,24(sp)
  52              		.cfi_remember_state
  53              		.cfi_restore 1
  54 0044 03340101 		ld	s0,16(sp)
  55              		.cfi_restore 8
  56              		.cfi_def_cfa 2, 32
  57 0048 83348100 		ld	s1,8(sp)
  58              		.cfi_restore 9
  59 004c 13010102 		addi	sp,sp,32
  60              		.cfi_def_cfa_offset 0
  61 0050 67800000 		jr	ra
  62              	.LVL3:
  63              	.L6:
  64              		.cfi_restore_state
  11:src/Scheduler.cpp ****     delete elem;
  65              		.loc 1 11 15 is_stmt 1 discriminator 1
  11:src/Scheduler.cpp ****     delete elem;
  66              		.loc 1 11 20 is_stmt 0 discriminator 1
  67 0054 97070000 		sd	zero,.LANCHOR0+8,a5
  67      23B00700 
  68 005c 6FF09FFD 		j	.L3
  69              	.LVL4:
  70              	.L4:
   7:src/Scheduler.cpp ****     Elem *elem = head;
  71              		.loc 1 7 22
  72 0060 93040500 		mv	s1,a0
  73 0064 6FF09FFD 		j	.L1
  74              		.cfi_endproc
  75              	.LFE18:
  77              		.align	2
  78              		.globl	_ZN9Scheduler3putEP3TCB
  80              	_ZN9Scheduler3putEP3TCB:
  81              	.LFB19:
  15:src/Scheduler.cpp **** 
  16:src/Scheduler.cpp **** void Scheduler::put(TCB *t) {
  82              		.loc 1 16 29 is_stmt 1
  83              		.cfi_startproc
  84              	.LVL5:
  85 0068 130101FE 		addi	sp,sp,-32
  86              		.cfi_def_cfa_offset 32
  87 006c 233C1100 		sd	ra,24(sp)
  88 0070 23388100 		sd	s0,16(sp)
  89 0074 23349100 		sd	s1,8(sp)
  90              		.cfi_offset 1, -8
  91              		.cfi_offset 8, -16
  92              		.cfi_offset 9, -24
  93 0078 13040102 		addi	s0,sp,32
  94              		.cfi_def_cfa 8, 0
GAS LISTING /tmp/cck1kkGs.s 			page 3


  95 007c 93040500 		mv	s1,a0
  17:src/Scheduler.cpp ****     Elem *newElem = new Elem(t, nullptr);
  96              		.loc 1 17 5
  97              		.loc 1 17 40 is_stmt 0
  98 0080 13050001 		li	a0,16
  99              	.LVL6:
 100 0084 97000000 		call	_Znwm@plt
 100      E7800000 
 101              	.LVL7:
 102              	.LBB5:
 103              	.LBB6:
 104              		.file 2 "src/../h/Scheduler.hpp"
   1:src/../h/Scheduler.hpp **** #ifndef PROJECT_BASE_SCHEDULER_HPP
   2:src/../h/Scheduler.hpp **** #define PROJECT_BASE_SCHEDULER_HPP
   3:src/../h/Scheduler.hpp **** 
   4:src/../h/Scheduler.hpp **** #include "../h/TCB.hpp"
   5:src/../h/Scheduler.hpp **** 
   6:src/../h/Scheduler.hpp **** class TCB;
   7:src/../h/Scheduler.hpp **** 
   8:src/../h/Scheduler.hpp **** class Scheduler {
   9:src/../h/Scheduler.hpp ****     struct Elem {
  10:src/../h/Scheduler.hpp ****         TCB *thread;
  11:src/../h/Scheduler.hpp ****         Elem *next = nullptr;
  12:src/../h/Scheduler.hpp ****         Elem(TCB *p, Elem *n) : thread(p), next(n) {}
 105              		.loc 2 12 50
 106 008c 23309500 		sd	s1,0(a0)
 107 0090 23340500 		sd	zero,8(a0)
 108              	.LVL8:
 109              	.LBE6:
 110              	.LBE5:
  18:src/Scheduler.cpp ****     if(!head) { head = tail = newElem; }
 111              		.loc 1 18 5 is_stmt 1
 112              		.loc 1 18 8 is_stmt 0
 113 0094 97070000 		ld	a5,.LANCHOR0
 113      83B70700 
 114              		.loc 1 18 5
 115 009c 63860702 		beqz	a5,.L11
  19:src/Scheduler.cpp ****     else {
  20:src/Scheduler.cpp ****         tail->next = newElem;
 116              		.loc 1 20 9 is_stmt 1
 117              		.loc 1 20 15 is_stmt 0
 118 00a0 97070000 		lla	a5,.LANCHOR0
 118      93870700 
 119 00a8 03B78700 		ld	a4,8(a5)
 120              		.loc 1 20 20
 121 00ac 2334A700 		sd	a0,8(a4)
  21:src/Scheduler.cpp ****         tail = tail->next;
 122              		.loc 1 21 9 is_stmt 1
 123              		.loc 1 21 14 is_stmt 0
 124 00b0 23B4A700 		sd	a0,8(a5)
 125              	.L7:
  22:src/Scheduler.cpp ****     }
  23:src/Scheduler.cpp **** }...
 126              		.loc 1 23 1
 127 00b4 83308101 		ld	ra,24(sp)
 128              		.cfi_remember_state
 129              		.cfi_restore 1
GAS LISTING /tmp/cck1kkGs.s 			page 4


 130 00b8 03340101 		ld	s0,16(sp)
 131              		.cfi_restore 8
 132              		.cfi_def_cfa 2, 32
 133 00bc 83348100 		ld	s1,8(sp)
 134              		.cfi_restore 9
 135              	.LVL9:
 136 00c0 13010102 		addi	sp,sp,32
 137              		.cfi_def_cfa_offset 0
 138 00c4 67800000 		jr	ra
 139              	.LVL10:
 140              	.L11:
 141              		.cfi_restore_state
  18:src/Scheduler.cpp ****     if(!head) { head = tail = newElem; }
 142              		.loc 1 18 17 is_stmt 1 discriminator 1
  18:src/Scheduler.cpp ****     if(!head) { head = tail = newElem; }
 143              		.loc 1 18 29 is_stmt 0 discriminator 1
 144 00c8 97070000 		lla	a5,.LANCHOR0
 144      93870700 
 145 00d0 23B4A700 		sd	a0,8(a5)
  18:src/Scheduler.cpp ****     if(!head) { head = tail = newElem; }
 146              		.loc 1 18 22 discriminator 1
 147 00d4 23B0A700 		sd	a0,0(a5)
 148 00d8 6FF0DFFD 		j	.L7
 149              		.cfi_endproc
 150              	.LFE19:
 152              		.globl	_ZN9Scheduler4tailE
 153              		.globl	_ZN9Scheduler4headE
 154              		.bss
 155              		.align	3
 156              		.set	.LANCHOR0,. + 0
 159              	_ZN9Scheduler4headE:
 160 0000 00000000 		.zero	8
 160      00000000 
 163              	_ZN9Scheduler4tailE:
 164 0008 00000000 		.zero	8
 164      00000000 
 165              		.text
 166              	.Letext0:
 167              		.file 3 "src/../h/../h/../lib/hw.h"
 168              		.file 4 "src/../h/../h/TCB.hpp"
GAS LISTING /tmp/cck1kkGs.s 			page 5

