GAS LISTING /tmp/cck1kkGs.s 			page 1


   1              		.file	"Scheduler.cpp"
   2              		.option pic
   3              		.option norelax
   4              		.text
   5              	.Ltext0:
   6              		.align	2
   7              		.globl	_ZN9Scheduler3getEv
   9              	_ZN9Scheduler3getEv:
  10              	.LFB18:
  11              		.file 1 "src/Scheduler.cpp"
   1:src/Scheduler.cpp **** #include "../h/Scheduler.hpp"
   2:src/Scheduler.cpp **** 
   3:src/Scheduler.cpp **** Scheduler::Elem* Scheduler::head = nullptr;
   4:src/Scheduler.cpp **** Scheduler::Elem* Scheduler::tail = nullptr;
   5:src/Scheduler.cpp **** 
   6:src/Scheduler.cpp **** TCB *Scheduler::get() {
  12              		.loc 1 6 23
  13              		.cfi_startproc
  14 0000 130101FE 		addi	sp,sp,-32
  15              		.cfi_def_cfa_offset 32
  16 0004 233C1100 		sd	ra,24(sp)
  17 0008 23388100 		sd	s0,16(sp)
  18 000c 23349100 		sd	s1,8(sp)
  19              		.cfi_offset 1, -8
  20              		.cfi_offset 8, -16
  21              		.cfi_offset 9, -24
  22 0010 13040102 		addi	s0,sp,32
  23              		.cfi_def_cfa 8, 0
   7:src/Scheduler.cpp ****     if(!head) return nullptr;
  24              		.loc 1 7 5
  25              		.loc 1 7 8 is_stmt 0
  26 0014 17050000 		ld	a0,.LANCHOR0
  26      03350500 
  27              		.loc 1 7 5
  28 001c 63020504 		beqz	a0,.L4
   8:src/Scheduler.cpp ****     Elem *elem = head;
  29              		.loc 1 8 5 is_stmt 1
  30              	.LVL0:
   9:src/Scheduler.cpp ****     TCB *ret = elem->thread;
  31              		.loc 1 9 5
  32              		.loc 1 9 10 is_stmt 0
  33 0020 83340500 		ld	s1,0(a0)
  34              	.LVL1:
  10:src/Scheduler.cpp ****     head = head->next;
  35              		.loc 1 10 5 is_stmt 1
  36              		.loc 1 10 18 is_stmt 0
  37 0024 83378500 		ld	a5,8(a0)
  38              		.loc 1 10 10
  39 0028 17070000 		sd	a5,.LANCHOR0,a4
  39      2330F700 
  11:src/Scheduler.cpp ****     if(!head) tail = nullptr;
  40              		.loc 1 11 5 is_stmt 1
  41 0030 63820702 		beqz	a5,.L6
  42              	.L3:
  12:src/Scheduler.cpp ****     delete elem;
  43              		.loc 1 12 5
  44              		.loc 1 12 12 is_stmt 0
GAS LISTING /tmp/cck1kkGs.s 			page 2


  45 0034 97000000 		call	_ZdlPv@plt
  45      E7800000 
  46              	.LVL2:
  13:src/Scheduler.cpp ****     return ret;
  47              		.loc 1 13 5 is_stmt 1
  48              	.L1:
  14:src/Scheduler.cpp **** }
  49              		.loc 1 14 1 is_stmt 0
  50 003c 13850400 		mv	a0,s1
  51 0040 83308101 		ld	ra,24(sp)
  52              		.cfi_remember_state
  53              		.cfi_restore 1
  54 0044 03340101 		ld	s0,16(sp)
  55              		.cfi_restore 8
  56              		.cfi_def_cfa 2, 32
  57 0048 83348100 		ld	s1,8(sp)
  58              		.cfi_restore 9
  59 004c 13010102 		addi	sp,sp,32
  60              		.cfi_def_cfa_offset 0
  61 0050 67800000 		jr	ra
  62              	.LVL3:
  63              	.L6:
  64              		.cfi_restore_state
  11:src/Scheduler.cpp ****     delete elem;
  65              		.loc 1 11 15 is_stmt 1 discriminator 1
  11:src/Scheduler.cpp ****     delete elem;
  66              		.loc 1 11 20 is_stmt 0 discriminator 1
  67 0054 97070000 		sd	zero,.LANCHOR0+8,a5
  67      23B00700 
  68 005c 6FF09FFD 		j	.L3
  69              	.LVL4:
  70              	.L4:
   7:src/Scheduler.cpp ****     Elem *elem = head;
  71              		.loc 1 7 22
  72 0060 93040500 		mv	s1,a0
  73 0064 6FF09FFD 		j	.L1
  74              		.cfi_endproc
  75              	.LFE18:
  77              		.align	2
  78              		.globl	_ZN9Scheduler3putEP3TCB
  80              	_ZN9Scheduler3putEP3TCB:
  81              	.LFB19:
  15:src/Scheduler.cpp **** 
  16:src/Scheduler.cpp **** void Scheduler::put(TCB *t) {
  82              		.loc 1 16 29 is_stmt 1
  83              		.cfi_startproc
  84              	.LVL5:
  85 0068 130101FE 		addi	sp,sp,-32
  86              		.cfi_def_cfa_offset 32
  87 006c 233C1100 		sd	ra,24(sp)
  88 0070 23388100 		sd	s0,16(sp)
  89 0074 23349100 		sd	s1,8(sp)
  90              		.cfi_offset 1, -8
  91              		.cfi_offset 8, -16
  92              		.cfi_offset 9, -24
  93 0078 13040102 		addi	s0,sp,32
  94              		.cfi_def_cfa 8, 0
GAS LISTING /tmp/cck1kkGs.s 			page 3


  95 007c 93040500 		mv	s1,a0
  17:src/Scheduler.cpp ****     Elem *newElem = new Elem(t, nullptr);
  96              		.loc 1 17 5
  97              		.loc 1 17 40 is_stmt 0
  98 0080 13050001 		li	a0,16
  99              	.LVL6:
 100 0084 97000000 		call	_Znwm@plt
 100      E7800000 
 101              	.LVL7:
 102              	.LBB5:
 103              	.LBB6:
 104              		.file 2 "src/../h/Scheduler.hpp"
   1:src/../h/Scheduler.hpp **** #ifndef PROJECT_BASE_SCHEDULER_HPP
   2:src/../h/Scheduler.hpp **** #define PROJECT_BASE_SCHEDULER_HPP
   3:src/../h/Scheduler.hpp **** 
   4:src/../h/Scheduler.hpp **** #include "../h/TCB.hpp"
   5:src/../h/Scheduler.hpp **** 
   6:src/../h/Scheduler.hpp **** class TCB;
   7:src/../h/Scheduler.hpp **** 
   8:src/../h/Scheduler.hpp **** class Scheduler {
   9:src/../h/Scheduler.hpp ****     struct Elem {
  10:src/../h/Scheduler.hpp ****         TCB *thread;
  11:src/../h/Scheduler.hpp ****         Elem *next = nullptr;
  12:src/../h/Scheduler.hpp ****         Elem(TCB *p, Elem *n) : thread(p), next(n) {}
 105              		.loc 2 12 50
 106 008c 23309500 		sd	s1,0(a0)
 107 0090 23340500 		sd	zero,8(a0)
 108              	.LVL8:
 109              	.LBE6:
 110              	.LBE5:
  18:src/Scheduler.cpp ****     if(!head) { head = tail = newElem; }
 111              		.loc 1 18 5 is_stmt 1
 112              		.loc 1 18 8 is_stmt 0
 113 0094 97070000 		ld	a5,.LANCHOR0
 113      83B70700 
 114              		.loc 1 18 5
 115 009c 63860702 		beqz	a5,.L11
  19:src/Scheduler.cpp ****     else {
  20:src/Scheduler.cpp ****         tail->next = newElem;
 116              		.loc 1 20 9 is_stmt 1
 117              		.loc 1 20 15 is_stmt 0
 118 00a0 97070000 		lla	a5,.LANCHOR0
 118      93870700 
 119 00a8 03B78700 		ld	a4,8(a5)
 120              		.loc 1 20 20
 121 00ac 2334A700 		sd	a0,8(a4)
  21:src/Scheduler.cpp ****         tail = tail->next;
 122              		.loc 1 21 9 is_stmt 1
 123              		.loc 1 21 14 is_stmt 0
 124 00b0 23B4A700 		sd	a0,8(a5)
 125              	.L7:
  22:src/Scheduler.cpp ****     }
  23:src/Scheduler.cpp **** }...
 126              		.loc 1 23 1
 127 00b4 83308101 		ld	ra,24(sp)
 128              		.cfi_remember_state
 129              		.cfi_restore 1
GAS LISTING /tmp/cck1kkGs.s 			page 4


 130 00b8 03340101 		ld	s0,16(sp)
 131              		.cfi_restore 8
 132              		.cfi_def_cfa 2, 32
 133 00bc 83348100 		ld	s1,8(sp)
 134              		.cfi_restore 9
 135              	.LVL9:
 136 00c0 13010102 		addi	sp,sp,32
 137              		.cfi_def_cfa_offset 0
 138 00c4 67800000 		jr	ra
 139              	.LVL10:
 140              	.L11:
 141              		.cfi_restore_state
  18:src/Scheduler.cpp ****     if(!head) { head = tail = newElem; }
 142              		.loc 1 18 17 is_stmt 1 discriminator 1
  18:src/Scheduler.cpp ****     if(!head) { head = tail = newElem; }
 143              		.loc 1 18 29 is_stmt 0 discriminator 1
 144 00c8 97070000 		lla	a5,.LANCHOR0
 144      93870700 
 145 00d0 23B4A700 		sd	a0,8(a5)
  18:src/Scheduler.cpp ****     if(!head) { head = tail = newElem; }
 146              		.loc 1 18 22 discriminator 1
 147 00d4 23B0A700 		sd	a0,0(a5)
 148 00d8 6FF0DFFD 		j	.L7
 149              		.cfi_endproc
 150              	.LFE19:
 152              		.globl	_ZN9Scheduler4tailE
 153              		.globl	_ZN9Scheduler4headE
 154              		.bss
 155              		.align	3
 156              		.set	.LANCHOR0,. + 0
 159              	_ZN9Scheduler4headE:
 160 0000 00000000 		.zero	8
 160      00000000 
 163              	_ZN9Scheduler4tailE:
 164 0008 00000000 		.zero	8
 164      00000000 
 165              		.text
 166              	.Letext0:
 167              		.file 3 "src/../h/../h/../lib/hw.h"
 168              		.file 4 "src/../h/../h/TCB.hpp"
GAS LISTING /tmp/cck1kkGs.s 			page 5


DEFINED SYMBOLS
                            *ABS*:0000000000000000 Scheduler.cpp
     /tmp/cck1kkGs.s:9      .text:0000000000000000 _ZN9Scheduler3getEv
     /tmp/cck1kkGs.s:13     .text:0000000000000000 .L0 
     /tmp/cck1kkGs.s:14     .text:0000000000000000 .L0 
     /tmp/cck1kkGs.s:15     .text:0000000000000004 .L0 
     /tmp/cck1kkGs.s:19     .text:0000000000000010 .L0 
     /tmp/cck1kkGs.s:20     .text:0000000000000010 .L0 
     /tmp/cck1kkGs.s:21     .text:0000000000000010 .L0 
     /tmp/cck1kkGs.s:23     .text:0000000000000014 .L0 
     /tmp/cck1kkGs.s:25     .text:0000000000000014 .L0 
     /tmp/cck1kkGs.s:26     .text:0000000000000014 .L0 
     /tmp/cck1kkGs.s:28     .text:000000000000001c .L0 
     /tmp/cck1kkGs.s:31     .text:0000000000000020 .L0 
     /tmp/cck1kkGs.s:32     .text:0000000000000020 .L0 
     /tmp/cck1kkGs.s:33     .text:0000000000000020 .L0 
     /tmp/cck1kkGs.s:36     .text:0000000000000024 .L0 
     /tmp/cck1kkGs.s:37     .text:0000000000000024 .L0 
     /tmp/cck1kkGs.s:39     .text:0000000000000028 .L0 
     /tmp/cck1kkGs.s:41     .text:0000000000000030 .L0 
     /tmp/cck1kkGs.s:44     .text:0000000000000034 .L0 
     /tmp/cck1kkGs.s:45     .text:0000000000000034 .L0 
     /tmp/cck1kkGs.s:49     .text:000000000000003c .L0 
     /tmp/cck1kkGs.s:50     .text:000000000000003c .L0 
     /tmp/cck1kkGs.s:52     .text:0000000000000044 .L0 
     /tmp/cck1kkGs.s:53     .text:0000000000000044 .L0 
     /tmp/cck1kkGs.s:55     .text:0000000000000048 .L0 
     /tmp/cck1kkGs.s:56     .text:0000000000000048 .L0 
     /tmp/cck1kkGs.s:58     .text:000000000000004c .L0 
     /tmp/cck1kkGs.s:60     .text:0000000000000050 .L0 
     /tmp/cck1kkGs.s:64     .text:0000000000000054 .L0 
     /tmp/cck1kkGs.s:66     .text:0000000000000054 .L0 
     /tmp/cck1kkGs.s:67     .text:0000000000000054 .L0 
     /tmp/cck1kkGs.s:72     .text:0000000000000060 .L0 
     /tmp/cck1kkGs.s:74     .text:0000000000000068 .L0 
     /tmp/cck1kkGs.s:80     .text:0000000000000068 _ZN9Scheduler3putEP3TCB
     /tmp/cck1kkGs.s:83     .text:0000000000000068 .L0 
     /tmp/cck1kkGs.s:85     .text:0000000000000068 .L0 
     /tmp/cck1kkGs.s:86     .text:000000000000006c .L0 
     /tmp/cck1kkGs.s:90     .text:0000000000000078 .L0 
     /tmp/cck1kkGs.s:91     .text:0000000000000078 .L0 
     /tmp/cck1kkGs.s:92     .text:0000000000000078 .L0 
     /tmp/cck1kkGs.s:94     .text:000000000000007c .L0 
     /tmp/cck1kkGs.s:97     .text:0000000000000080 .L0 
     /tmp/cck1kkGs.s:98     .text:0000000000000080 .L0 
     /tmp/cck1kkGs.s:106    .text:000000000000008c .L0 
     /tmp/cck1kkGs.s:112    .text:0000000000000094 .L0 
     /tmp/cck1kkGs.s:113    .text:0000000000000094 .L0 
     /tmp/cck1kkGs.s:115    .text:000000000000009c .L0 
     /tmp/cck1kkGs.s:117    .text:00000000000000a0 .L0 
     /tmp/cck1kkGs.s:118    .text:00000000000000a0 .L0 
     /tmp/cck1kkGs.s:121    .text:00000000000000ac .L0 
     /tmp/cck1kkGs.s:123    .text:00000000000000b0 .L0 
     /tmp/cck1kkGs.s:124    .text:00000000000000b0 .L0 
     /tmp/cck1kkGs.s:127    .text:00000000000000b4 .L0 
     /tmp/cck1kkGs.s:128    .text:00000000000000b8 .L0 
     /tmp/cck1kkGs.s:129    .text:00000000000000b8 .L0 
GAS LISTING /tmp/cck1kkGs.s 			page 6


     /tmp/cck1kkGs.s:131    .text:00000000000000bc .L0 
     /tmp/cck1kkGs.s:132    .text:00000000000000bc .L0 
     /tmp/cck1kkGs.s:134    .text:00000000000000c0 .L0 
     /tmp/cck1kkGs.s:137    .text:00000000000000c4 .L0 
     /tmp/cck1kkGs.s:141    .text:00000000000000c8 .L0 
     /tmp/cck1kkGs.s:143    .text:00000000000000c8 .L0 
     /tmp/cck1kkGs.s:144    .text:00000000000000c8 .L0 
     /tmp/cck1kkGs.s:147    .text:00000000000000d4 .L0 
     /tmp/cck1kkGs.s:149    .text:00000000000000dc .L0 
     /tmp/cck1kkGs.s:163    .bss:0000000000000008 _ZN9Scheduler4tailE
     /tmp/cck1kkGs.s:159    .bss:0000000000000000 _ZN9Scheduler4headE
     /tmp/cck1kkGs.s:156    .bss:0000000000000000 .LANCHOR0
     /tmp/cck1kkGs.s:169    .text:00000000000000dc .L0 
     /tmp/cck1kkGs.s:26     .text:0000000000000014 .L0 
     /tmp/cck1kkGs.s:39     .text:0000000000000028 .L0 
     /tmp/cck1kkGs.s:67     .text:0000000000000054 .L0 
     /tmp/cck1kkGs.s:113    .text:0000000000000094 .L0 
     /tmp/cck1kkGs.s:118    .text:00000000000000a0 .L0 
     /tmp/cck1kkGs.s:144    .text:00000000000000c8 .L0 
     /tmp/cck1kkGs.s:70     .text:0000000000000060 .L4
     /tmp/cck1kkGs.s:63     .text:0000000000000054 .L6
     /tmp/cck1kkGs.s:42     .text:0000000000000034 .L3
     /tmp/cck1kkGs.s:48     .text:000000000000003c .L1
     /tmp/cck1kkGs.s:140    .text:00000000000000c8 .L11
     /tmp/cck1kkGs.s:125    .text:00000000000000b4 .L7
     /tmp/cck1kkGs.s:952    .debug_abbrev:0000000000000000 .Ldebug_abbrev0
     /tmp/cck1kkGs.s:1983   .debug_str:0000000000000486 .LASF83
     /tmp/cck1kkGs.s:1993   .debug_str:0000000000000589 .LASF84
     /tmp/cck1kkGs.s:1877   .debug_str:000000000000019a .LASF85
     /tmp/cck1kkGs.s:5      .text:0000000000000000 .Ltext0
     /tmp/cck1kkGs.s:166    .text:00000000000000dc .Letext0
     /tmp/cck1kkGs.s:1817   .debug_line:0000000000000000 .Ldebug_line0
     /tmp/cck1kkGs.s:1929   .debug_str:000000000000032a .LASF0
     /tmp/cck1kkGs.s:1937   .debug_str:000000000000035c .LASF1
     /tmp/cck1kkGs.s:1913   .debug_str:00000000000002a6 .LASF2
     /tmp/cck1kkGs.s:1889   .debug_str:0000000000000214 .LASF4
     /tmp/cck1kkGs.s:1973   .debug_str:000000000000043f .LASF3
     /tmp/cck1kkGs.s:1835   .debug_str:000000000000008d .LASF5
     /tmp/cck1kkGs.s:1855   .debug_str:0000000000000103 .LASF6
     /tmp/cck1kkGs.s:1939   .debug_str:000000000000036f .LASF7
     /tmp/cck1kkGs.s:1927   .debug_str:0000000000000317 .LASF8
     /tmp/cck1kkGs.s:1991   .debug_str:0000000000000579 .LASF9
     /tmp/cck1kkGs.s:1881   .debug_str:00000000000001cf .LASF10
     /tmp/cck1kkGs.s:1951   .debug_str:00000000000003b5 .LASF11
     /tmp/cck1kkGs.s:1987   .debug_str:0000000000000554 .LASF12
     /tmp/cck1kkGs.s:1837   .debug_str:0000000000000094 .LASF13
     /tmp/cck1kkGs.s:1821   .debug_str:0000000000000008 .LASF14
     /tmp/cck1kkGs.s:1845   .debug_str:00000000000000cd .LASF15
     /tmp/cck1kkGs.s:1967   .debug_str:000000000000041e .LASF16
     /tmp/cck1kkGs.s:1851   .debug_str:00000000000000e8 .LASF17
     /tmp/cck1kkGs.s:1827   .debug_str:0000000000000041 .LASF86
     /tmp/cck1kkGs.s:1905   .debug_str:0000000000000272 .LASF70
     /tmp/cck1kkGs.s:1943   .debug_str:000000000000038d .LASF18
     /tmp/cck1kkGs.s:1999   .debug_str:00000000000005bf .LASF19
     /tmp/cck1kkGs.s:1857   .debug_str:000000000000010a .LASF71
     /tmp/cck1kkGs.s:1899   .debug_str:000000000000024a .LASF20
     /tmp/cck1kkGs.s:1919   .debug_str:00000000000002d0 .LASF22
GAS LISTING /tmp/cck1kkGs.s 			page 7


     /tmp/cck1kkGs.s:1961   .debug_str:00000000000003ef .LASF87
     /tmp/cck1kkGs.s:1861   .debug_str:0000000000000135 .LASF21
     /tmp/cck1kkGs.s:1959   .debug_str:00000000000003e3 .LASF23
     /tmp/cck1kkGs.s:1969   .debug_str:0000000000000434 .LASF24
     /tmp/cck1kkGs.s:1923   .debug_str:00000000000002fc .LASF26
     /tmp/cck1kkGs.s:1931   .debug_str:0000000000000337 .LASF25
     /tmp/cck1kkGs.s:1871   .debug_str:000000000000016e .LASF27
     /tmp/cck1kkGs.s:1977   .debug_str:0000000000000462 .LASF63
     /tmp/cck1kkGs.s:1955   .debug_str:00000000000003cd .LASF88
     /tmp/cck1kkGs.s:1849   .debug_str:00000000000000df .LASF28
     /tmp/cck1kkGs.s:1895   .debug_str:000000000000022f .LASF29
     /tmp/cck1kkGs.s:1935   .debug_str:0000000000000356 .LASF30
     /tmp/cck1kkGs.s:1917   .debug_str:00000000000002c0 .LASF31
     /tmp/cck1kkGs.s:1867   .debug_str:000000000000015d .LASF50
     /tmp/cck1kkGs.s:1941   .debug_str:0000000000000382 .LASF34
     /tmp/cck1kkGs.s:1879   .debug_str:00000000000001b8 .LASF36
     /tmp/cck1kkGs.s:1915   .debug_str:00000000000002b4 .LASF32
     /tmp/cck1kkGs.s:1887   .debug_str:00000000000001fd .LASF33
     /tmp/cck1kkGs.s:1839   .debug_str:00000000000000a4 .LASF35
     /tmp/cck1kkGs.s:1875   .debug_str:0000000000000186 .LASF37
     /tmp/cck1kkGs.s:1945   .debug_str:0000000000000394 .LASF38
     /tmp/cck1kkGs.s:1833   .debug_str:0000000000000079 .LASF39
     /tmp/cck1kkGs.s:1825   .debug_str:0000000000000037 .LASF40
     /tmp/cck1kkGs.s:1901   .debug_str:0000000000000257 .LASF41
     /tmp/cck1kkGs.s:1891   .debug_str:000000000000021b .LASF42
     /tmp/cck1kkGs.s:1989   .debug_str:0000000000000563 .LASF43
     /tmp/cck1kkGs.s:1925   .debug_str:000000000000030c .LASF44
     /tmp/cck1kkGs.s:1865   .debug_str:0000000000000146 .LASF45
     /tmp/cck1kkGs.s:1863   .debug_str:000000000000013a .LASF46
     /tmp/cck1kkGs.s:1829   .debug_str:0000000000000049 .LASF47
     /tmp/cck1kkGs.s:1907   .debug_str:0000000000000277 .LASF48
     /tmp/cck1kkGs.s:1831   .debug_str:0000000000000060 .LASF49
     /tmp/cck1kkGs.s:1975   .debug_str:0000000000000451 .LASF51
     /tmp/cck1kkGs.s:1869   .debug_str:0000000000000165 .LASF52
     /tmp/cck1kkGs.s:2003   .debug_str:00000000000005d8 .LASF53
     /tmp/cck1kkGs.s:1847   .debug_str:00000000000000d9 .LASF54
     /tmp/cck1kkGs.s:1897   .debug_str:0000000000000242 .LASF55
     /tmp/cck1kkGs.s:1893   .debug_str:0000000000000226 .LASF56
     /tmp/cck1kkGs.s:1885   .debug_str:00000000000001f6 .LASF57
     /tmp/cck1kkGs.s:1819   .debug_str:0000000000000000 .LASF58
     /tmp/cck1kkGs.s:1953   .debug_str:00000000000003c4 .LASF59
     /tmp/cck1kkGs.s:1985   .debug_str:000000000000054a .LASF60
     /tmp/cck1kkGs.s:1981   .debug_str:0000000000000477 .LASF61
     /tmp/cck1kkGs.s:1949   .debug_str:00000000000003a8 .LASF62
     /tmp/cck1kkGs.s:1997   .debug_str:00000000000005a8 .LASF89
     /tmp/cck1kkGs.s:1909   .debug_str:0000000000000284 .LASF64
     /tmp/cck1kkGs.s:1883   .debug_str:00000000000001dd .LASF66
     /tmp/cck1kkGs.s:1963   .debug_str:00000000000003f4 .LASF65
     /tmp/cck1kkGs.s:1933   .debug_str:0000000000000340 .LASF67
     /tmp/cck1kkGs.s:1873   .debug_str:0000000000000181 .LASF68
     /tmp/cck1kkGs.s:1947   .debug_str:000000000000039e .LASF69
     /tmp/cck1kkGs.s:1823   .debug_str:0000000000000018 .LASF72
     /tmp/cck1kkGs.s:1853   .debug_str:00000000000000fe .LASF73
     /tmp/cck1kkGs.s:1921   .debug_str:00000000000002f7 .LASF74
     /tmp/cck1kkGs.s:1859   .debug_str:0000000000000121 .LASF90
     /tmp/cck1kkGs.s:1843   .debug_str:00000000000000b5 .LASF91
     /tmp/cck1kkGs.s:1911   .debug_str:0000000000000292 .LASF75
GAS LISTING /tmp/cck1kkGs.s 			page 8


     /tmp/cck1kkGs.s:2001   .debug_str:00000000000005c4 .LASF76
     /tmp/cck1kkGs.s:81     .text:0000000000000068 .LFB19
     /tmp/cck1kkGs.s:150    .text:00000000000000dc .LFE19
     /tmp/cck1kkGs.s:1738   .debug_loc:0000000000000000 .LLST2
     /tmp/cck1kkGs.s:1841   .debug_str:00000000000000ad .LASF77
     /tmp/cck1kkGs.s:102    .text:000000000000008c .LBB5
     /tmp/cck1kkGs.s:110    .text:0000000000000094 .LBE5
     /tmp/cck1kkGs.s:1760   .debug_loc:000000000000005f .LLST3
     /tmp/cck1kkGs.s:1768   .debug_loc:0000000000000083 .LLST4
     /tmp/cck1kkGs.s:1775   .debug_loc:00000000000000a6 .LLST5
     /tmp/cck1kkGs.s:101    .text:000000000000008c .LVL7
     /tmp/cck1kkGs.s:10     .text:0000000000000000 .LFB18
     /tmp/cck1kkGs.s:75     .text:0000000000000068 .LFE18
     /tmp/cck1kkGs.s:1971   .debug_str:000000000000043a .LASF78
     /tmp/cck1kkGs.s:1782   .debug_loc:00000000000000c9 .LLST0
     /tmp/cck1kkGs.s:1793   .debug_loc:00000000000000ff .LLST1
     /tmp/cck1kkGs.s:46     .text:000000000000003c .LVL2
     /tmp/cck1kkGs.s:1957   .debug_str:00000000000003de .LASF92
     /tmp/cck1kkGs.s:1965   .debug_str:00000000000003ff .LASF93
     /tmp/cck1kkGs.s:1903   .debug_str:000000000000026c .LASF79
     /tmp/cck1kkGs.s:1995   .debug_str:000000000000059b .LASF81
     /tmp/cck1kkGs.s:2005   .debug_str:00000000000005dd .LASF80
     /tmp/cck1kkGs.s:1979   .debug_str:0000000000000467 .LASF82
     /tmp/cck1kkGs.s:84     .text:0000000000000068 .LVL5
     /tmp/cck1kkGs.s:99     .text:0000000000000084 .LVL6
     /tmp/cck1kkGs.s:135    .text:00000000000000c0 .LVL9
     /tmp/cck1kkGs.s:139    .text:00000000000000c8 .LVL10
     /tmp/cck1kkGs.s:108    .text:0000000000000094 .LVL8
     /tmp/cck1kkGs.s:30     .text:0000000000000020 .LVL0
     /tmp/cck1kkGs.s:62     .text:0000000000000054 .LVL3
     /tmp/cck1kkGs.s:69     .text:0000000000000060 .LVL4
     /tmp/cck1kkGs.s:34     .text:0000000000000024 .LVL1
     /tmp/cck1kkGs.s:170    .debug_info:0000000000000000 .Ldebug_info0

UNDEFINED SYMBOLS
_ZdlPv
_Znwm
