GAS LISTING /tmp/ccwg4dHo.s 			page 1


   1              		.file	"Sem.cpp"
   2              		.option pic
   3              		.option norelax
   4              		.text
   5              	.Ltext0:
   6              		.align	2
   7              		.globl	_ZN3Sem7semOpenEPPS_j
   9              	_ZN3Sem7semOpenEPPS_j:
  10              	.LFB33:
  11              		.file 1 "src/Sem.cpp"
   1:src/Sem.cpp   **** #include "../h/Sem.hpp"
   2:src/Sem.cpp   **** #include "../h/syscall_c.hpp"
   3:src/Sem.cpp   **** 
   4:src/Sem.cpp   **** int Sem::semOpen(Sem **handle, unsigned int init) {
  12              		.loc 1 4 51
  13              		.cfi_startproc
  14              		.cfi_personality 0x9b,DW.ref.__gxx_personality_v0
  15              		.cfi_lsda 0x1b,.LLSDA33
  16              	.LVL0:
  17 0000 130101FD 		addi	sp,sp,-48
  18              		.cfi_def_cfa_offset 48
  19 0004 23341102 		sd	ra,40(sp)
  20 0008 23308102 		sd	s0,32(sp)
  21 000c 233C9100 		sd	s1,24(sp)
  22 0010 23382101 		sd	s2,16(sp)
  23 0014 23343101 		sd	s3,8(sp)
  24              		.cfi_offset 1, -8
  25              		.cfi_offset 8, -16
  26              		.cfi_offset 9, -24
  27              		.cfi_offset 18, -32
  28              		.cfi_offset 19, -40
  29 0018 13040103 		addi	s0,sp,48
  30              		.cfi_def_cfa 8, 0
  31 001c 13090500 		mv	s2,a0
  32 0020 93890500 		mv	s3,a1
   5:src/Sem.cpp   ****     *handle = new Sem((int) init);
  33              		.loc 1 5 5
  34              		.loc 1 5 33 is_stmt 0
  35 0024 13050001 		li	a0,16
  36              	.LVL1:
  37              	.LEHB0:
  38 0028 97000000 		call	_Znwm@plt
  38      E7800000 
  39              	.LVL2:
  40              	.LEHE0:
  41 0030 93040500 		mv	s1,a0
  42              	.LVL3:
  43              	.LBB14:
  44              	.LBB15:
  45              		.file 2 "src/../h/Sem.hpp"
   1:src/../h/Sem.hpp **** #ifndef PROJECT_BASE_SEM_HPP
   2:src/../h/Sem.hpp **** #define PROJECT_BASE_SEM_HPP
   3:src/../h/Sem.hpp **** 
   4:src/../h/Sem.hpp **** #include "Blocked.hpp"
   5:src/../h/Sem.hpp **** #include "TCB.hpp"
   6:src/../h/Sem.hpp **** 
   7:src/../h/Sem.hpp **** class Sem {
GAS LISTING /tmp/ccwg4dHo.s 			page 2


   8:src/../h/Sem.hpp ****     int init;
   9:src/../h/Sem.hpp ****     Blocked *blockedThreads = new Blocked();
  10:src/../h/Sem.hpp **** 
  11:src/../h/Sem.hpp **** public:
  12:src/../h/Sem.hpp ****     friend class TCB;
  13:src/../h/Sem.hpp **** 
  14:src/../h/Sem.hpp ****     Sem(int i) : init(i) { }
  46              		.loc 2 14 24
  47 0034 23203501 		sw	s3,0(a0)
  48 0038 13050001 		li	a0,16
  49              	.LEHB1:
  50 003c 97000000 		call	_Znwm@plt
  50      E7800000 
  51              	.LVL4:
  52              	.LEHE1:
  53 0044 23300500 		sd	zero,0(a0)
  54 0048 23340500 		sd	zero,8(a0)
  55 004c 23B4A400 		sd	a0,8(s1)
  56              	.LVL5:
  57              	.LBE15:
  58              	.LBE14:
  59              		.loc 1 5 13
  60 0050 23309900 		sd	s1,0(s2)
   6:src/Sem.cpp   ****     if(!*handle) return -1;
  61              		.loc 1 6 5 is_stmt 1
  62 0054 63820402 		beqz	s1,.L4
   7:src/Sem.cpp   ****     return 0;
  63              		.loc 1 7 12 is_stmt 0
  64 0058 13050000 		li	a0,0
  65              	.L6:
   8:src/Sem.cpp   **** }
  66              		.loc 1 8 1
  67 005c 83308102 		ld	ra,40(sp)
  68              		.cfi_remember_state
  69              		.cfi_restore 1
  70 0060 03340102 		ld	s0,32(sp)
  71              		.cfi_restore 8
  72              		.cfi_def_cfa 2, 48
  73 0064 83348101 		ld	s1,24(sp)
  74              		.cfi_restore 9
  75 0068 03390101 		ld	s2,16(sp)
  76              		.cfi_restore 18
  77              	.LVL6:
  78 006c 83398100 		ld	s3,8(sp)
  79              		.cfi_restore 19
  80 0070 13010103 		addi	sp,sp,48
  81              		.cfi_def_cfa_offset 0
  82 0074 67800000 		jr	ra
  83              	.LVL7:
  84              	.L4:
  85              		.cfi_restore_state
   6:src/Sem.cpp   ****     if(!*handle) return -1;
  86              		.loc 1 6 26
  87 0078 1305F0FF 		li	a0,-1
  88 007c 6FF01FFE 		j	.L6
  89              	.LVL8:
  90              	.L5:
GAS LISTING /tmp/ccwg4dHo.s 			page 3


  91 0080 13090500 		mv	s2,a0
  92              	.LVL9:
   5:src/Sem.cpp   ****     if(!*handle) return -1;
  93              		.loc 1 5 33
  94 0084 13850400 		mv	a0,s1
  95 0088 97000000 		call	_ZdlPv@plt
  95      E7800000 
  96              	.LVL10:
  97 0090 13050900 		mv	a0,s2
  98              	.LEHB2:
  99 0094 97000000 		call	_Unwind_Resume@plt
  99      E7800000 
 100              	.LVL11:
 101              	.LEHE2:
 102              		.cfi_endproc
 103              	.LFE33:
 104              		.globl	__gxx_personality_v0
 105              		.section	.gcc_except_table,"a",@progbits
 106              	.LLSDA33:
 107 0000 FF       		.byte	0xff
 108 0001 FF       		.byte	0xff
 109 0002 03       		.byte	0x3
 110 0003 27       		.byte	0x27
 111 0004 00000000 		.4byte	.LEHB0-.LFB33
 112 0008 00000000 		.4byte	.LEHE0-.LEHB0
 113 000c 00000000 		.4byte	0
 114 0010 00       		.byte	0
 115 0011 00000000 		.4byte	.LEHB1-.LFB33
 116 0015 00000000 		.4byte	.LEHE1-.LEHB1
 117 0019 00000000 		.4byte	.L5-.LFB33
 118 001d 00       		.byte	0
 119 001e 00000000 		.4byte	.LEHB2-.LFB33
 120 0022 00000000 		.4byte	.LEHE2-.LEHB2
 121 0026 00000000 		.4byte	0
 122 002a 00       		.byte	0
 123              		.text
 125              		.align	2
 126              		.globl	_ZN3Sem5blockEv
 128              	_ZN3Sem5blockEv:
 129              	.LFB37:
   9:src/Sem.cpp   **** 
  10:src/Sem.cpp   **** int Sem::semClose(Sem *handle) {
  11:src/Sem.cpp   ****     if(!handle) return -1;
  12:src/Sem.cpp   ****     while(handle->blockedThreads->head) handle->deblock();
  13:src/Sem.cpp   ****     delete handle;
  14:src/Sem.cpp   ****     return 0;
  15:src/Sem.cpp   **** }
  16:src/Sem.cpp   **** 
  17:src/Sem.cpp   **** int Sem::semWait(Sem *id) {
  18:src/Sem.cpp   ****     if(!id) return -1;
  19:src/Sem.cpp   ****     if(--id->init < 0) id->block();
  20:src/Sem.cpp   ****     return 0;
  21:src/Sem.cpp   **** }
  22:src/Sem.cpp   **** 
  23:src/Sem.cpp   **** int Sem::semSignal(Sem *id) {
  24:src/Sem.cpp   ****     if(!id) return -1;
  25:src/Sem.cpp   ****     if(++id->init <= 0) id->deblock();
GAS LISTING /tmp/ccwg4dHo.s 			page 4


  26:src/Sem.cpp   ****     return 0;
  27:src/Sem.cpp   **** }
  28:src/Sem.cpp   **** 
  29:src/Sem.cpp   **** void Sem::block() {
 130              		.loc 1 29 19 is_stmt 1
 131              		.cfi_startproc
 132              	.LVL12:
 133 009c 130101FF 		addi	sp,sp,-16
 134              		.cfi_def_cfa_offset 16
 135 00a0 23341100 		sd	ra,8(sp)
 136 00a4 23308100 		sd	s0,0(sp)
 137              		.cfi_offset 1, -8
 138              		.cfi_offset 8, -16
 139 00a8 13040101 		addi	s0,sp,16
 140              		.cfi_def_cfa 8, 0
  30:src/Sem.cpp   ****     TCB::running->setBlocked(true);
 141              		.loc 1 30 5
 142              		.loc 1 30 29 is_stmt 0
 143 00ac 97070000 		la	a5,_ZN3TCB7runningE
 143      83B70700 
 144 00b4 83B50700 		ld	a1,0(a5)
 145              	.LVL13:
 146              	.LBB16:
 147              	.LBB17:
 148              		.file 3 "src/../h/TCB.hpp"
   1:src/../h/TCB.hpp **** #ifndef PROJECT_BASE_TCB_HPP
   2:src/../h/TCB.hpp **** #define PROJECT_BASE_TCB_HPP
   3:src/../h/TCB.hpp **** 
   4:src/../h/TCB.hpp **** #include "../lib/hw.h"
   5:src/../h/TCB.hpp **** #include "../h/Scheduler.hpp"
   6:src/../h/TCB.hpp **** #include "../h/Sleeping.hpp"
   7:src/../h/TCB.hpp **** 
   8:src/../h/TCB.hpp **** class TCB {
   9:src/../h/TCB.hpp **** public:
  10:src/../h/TCB.hpp ****     friend class Sem;
  11:src/../h/TCB.hpp ****     using Body = void (*)(void*);
  12:src/../h/TCB.hpp **** 
  13:src/../h/TCB.hpp ****     static int createThread(TCB **handle, Body body, void *arg, void *stack);
  14:src/../h/TCB.hpp ****     ~TCB();
  15:src/../h/TCB.hpp ****     static void yield();
  16:src/../h/TCB.hpp ****     static void dispatch();
  17:src/../h/TCB.hpp ****     static void join(TCB *handle);
  18:src/../h/TCB.hpp ****     void waitList();
  19:src/../h/TCB.hpp ****     static int sleep(time_t time);
  20:src/../h/TCB.hpp **** 
  21:src/../h/TCB.hpp ****     static TCB *running;
  22:src/../h/TCB.hpp **** 
  23:src/../h/TCB.hpp ****     bool isFinished() const { return finished; }
  24:src/../h/TCB.hpp ****     void setFinished(bool f) { finished = f; }
  25:src/../h/TCB.hpp ****     bool isJoined() const { return joined; }
  26:src/../h/TCB.hpp ****     void setJoined(bool b) { joined = b; }
  27:src/../h/TCB.hpp ****     bool isBlocked() const { return blocked; }
  28:src/../h/TCB.hpp ****     void setBlocked(bool b) { blocked = b; }
 149              		.loc 3 28 31 is_stmt 1
 150              		.loc 3 28 39 is_stmt 0
 151 00b8 93071000 		li	a5,1
 152 00bc 2385F502 		sb	a5,42(a1)
GAS LISTING /tmp/ccwg4dHo.s 			page 5


 153              	.LVL14:
 154              	.LBE17:
 155              	.LBE16:
  31:src/Sem.cpp   ****     blockedThreads->put(TCB::running);
 156              		.loc 1 31 5 is_stmt 1
 157              		.loc 1 31 24 is_stmt 0
 158 00c0 03358500 		ld	a0,8(a0)
 159              	.LVL15:
 160 00c4 97000000 		call	_ZN7Blocked3putEP3TCB@plt
 160      E7800000 
 161              	.LVL16:
  32:src/Sem.cpp   ****     TCB::yield();
 162              		.loc 1 32 5 is_stmt 1
 163              		.loc 1 32 15 is_stmt 0
 164 00cc 97000000 		call	_ZN3TCB5yieldEv@plt
 164      E7800000 
 165              	.LVL17:
  33:src/Sem.cpp   **** }
 166              		.loc 1 33 1
 167 00d4 83308100 		ld	ra,8(sp)
 168              		.cfi_restore 1
 169 00d8 03340100 		ld	s0,0(sp)
 170              		.cfi_restore 8
 171              		.cfi_def_cfa 2, 16
 172 00dc 13010101 		addi	sp,sp,16
 173              		.cfi_def_cfa_offset 0
 174 00e0 67800000 		jr	ra
 175              		.cfi_endproc
 176              	.LFE37:
 178              		.align	2
 179              		.globl	_ZN3Sem7semWaitEPS_
 181              	_ZN3Sem7semWaitEPS_:
 182              	.LFB35:
  17:src/Sem.cpp   ****     if(!id) return -1;
 183              		.loc 1 17 27 is_stmt 1
 184              		.cfi_startproc
 185              	.LVL18:
  18:src/Sem.cpp   ****     if(--id->init < 0) id->block();
 186              		.loc 1 18 5
 187 00e4 63060504 		beqz	a0,.L12
  19:src/Sem.cpp   ****     return 0;
 188              		.loc 1 19 5
  19:src/Sem.cpp   ****     return 0;
 189              		.loc 1 19 14 is_stmt 0
 190 00e8 83270500 		lw	a5,0(a0)
  19:src/Sem.cpp   ****     return 0;
 191              		.loc 1 19 8
 192 00ec 9B87F7FF 		addiw	a5,a5,-1
  19:src/Sem.cpp   ****     return 0;
 193              		.loc 1 19 19
 194 00f0 2320F500 		sw	a5,0(a0)
  19:src/Sem.cpp   ****     return 0;
 195              		.loc 1 19 5
 196 00f4 13970702 		slli	a4,a5,32
 197 00f8 63460700 		bltz	a4,.L18
  20:src/Sem.cpp   **** }
 198              		.loc 1 20 12
GAS LISTING /tmp/ccwg4dHo.s 			page 6


 199 00fc 13050000 		li	a0,0
 200              	.LVL19:
  21:src/Sem.cpp   **** 
 201              		.loc 1 21 1
 202 0100 67800000 		ret
 203              	.LVL20:
 204              	.L18:
  17:src/Sem.cpp   ****     if(!id) return -1;
 205              		.loc 1 17 27 discriminator 1
 206 0104 130101FF 		addi	sp,sp,-16
 207              		.cfi_def_cfa_offset 16
 208 0108 23341100 		sd	ra,8(sp)
 209 010c 23308100 		sd	s0,0(sp)
 210              		.cfi_offset 1, -8
 211              		.cfi_offset 8, -16
 212 0110 13040101 		addi	s0,sp,16
 213              		.cfi_def_cfa 8, 0
  19:src/Sem.cpp   ****     return 0;
 214              		.loc 1 19 24 is_stmt 1 discriminator 1
  19:src/Sem.cpp   ****     return 0;
 215              		.loc 1 19 33 is_stmt 0 discriminator 1
 216 0114 97000000 		call	_ZN3Sem5blockEv
 216      E7800000 
 217              	.LVL21:
  20:src/Sem.cpp   **** }
 218              		.loc 1 20 12 discriminator 1
 219 011c 13050000 		li	a0,0
  21:src/Sem.cpp   **** 
 220              		.loc 1 21 1 discriminator 1
 221 0120 83308100 		ld	ra,8(sp)
 222              		.cfi_restore 1
 223 0124 03340100 		ld	s0,0(sp)
 224              		.cfi_restore 8
 225              		.cfi_def_cfa 2, 16
 226 0128 13010101 		addi	sp,sp,16
 227              		.cfi_def_cfa_offset 0
 228 012c 67800000 		jr	ra
 229              	.LVL22:
 230              	.L12:
  18:src/Sem.cpp   ****     if(--id->init < 0) id->block();
 231              		.loc 1 18 21
 232 0130 1305F0FF 		li	a0,-1
 233              	.LVL23:
 234 0134 67800000 		ret
 235              		.cfi_endproc
 236              	.LFE35:
 238              		.align	2
 239              		.globl	_ZN3Sem7deblockEv
 241              	_ZN3Sem7deblockEv:
 242              	.LFB38:
  34:src/Sem.cpp   **** 
  35:src/Sem.cpp   **** void Sem::deblock() {
 243              		.loc 1 35 21 is_stmt 1
 244              		.cfi_startproc
 245              	.LVL24:
 246 0138 130101FF 		addi	sp,sp,-16
 247              		.cfi_def_cfa_offset 16
GAS LISTING /tmp/ccwg4dHo.s 			page 7


 248 013c 23341100 		sd	ra,8(sp)
 249 0140 23308100 		sd	s0,0(sp)
 250              		.cfi_offset 1, -8
 251              		.cfi_offset 8, -16
 252 0144 13040101 		addi	s0,sp,16
 253              		.cfi_def_cfa 8, 0
  36:src/Sem.cpp   ****     TCB *p = blockedThreads->get();
 254              		.loc 1 36 5
 255              		.loc 1 36 33 is_stmt 0
 256 0148 03358500 		ld	a0,8(a0)
 257              	.LVL25:
 258 014c 97000000 		call	_ZN7Blocked3getEv@plt
 258      E7800000 
 259              	.LVL26:
  37:src/Sem.cpp   ****     p->setBlocked(false);
 260              		.loc 1 37 5 is_stmt 1
 261              	.LBB18:
 262              	.LBB19:
 263              		.loc 3 28 31
 264              		.loc 3 28 39 is_stmt 0
 265 0154 23050502 		sb	zero,42(a0)
 266              	.LVL27:
 267              	.LBE19:
 268              	.LBE18:
  38:src/Sem.cpp   ****     Scheduler::put(p);
 269              		.loc 1 38 5 is_stmt 1
 270              		.loc 1 38 19 is_stmt 0
 271 0158 97000000 		call	_ZN9Scheduler3putEP3TCB@plt
 271      E7800000 
 272              	.LVL28:
  39:src/Sem.cpp   **** }
 273              		.loc 1 39 1
 274 0160 83308100 		ld	ra,8(sp)
 275              		.cfi_restore 1
 276 0164 03340100 		ld	s0,0(sp)
 277              		.cfi_restore 8
 278              		.cfi_def_cfa 2, 16
 279 0168 13010101 		addi	sp,sp,16
 280              		.cfi_def_cfa_offset 0
 281 016c 67800000 		jr	ra
 282              		.cfi_endproc
 283              	.LFE38:
 285              		.align	2
 286              		.globl	_ZN3Sem8semCloseEPS_
 288              	_ZN3Sem8semCloseEPS_:
 289              	.LFB34:
  10:src/Sem.cpp   ****     if(!handle) return -1;
 290              		.loc 1 10 32 is_stmt 1
 291              		.cfi_startproc
 292              	.LVL29:
 293 0170 130101FE 		addi	sp,sp,-32
 294              		.cfi_def_cfa_offset 32
 295 0174 233C1100 		sd	ra,24(sp)
 296 0178 23388100 		sd	s0,16(sp)
 297 017c 23349100 		sd	s1,8(sp)
 298              		.cfi_offset 1, -8
 299              		.cfi_offset 8, -16
GAS LISTING /tmp/ccwg4dHo.s 			page 8


 300              		.cfi_offset 9, -24
 301 0180 13040102 		addi	s0,sp,32
 302              		.cfi_def_cfa 8, 0
 303 0184 93040500 		mv	s1,a0
  11:src/Sem.cpp   ****     while(handle->blockedThreads->head) handle->deblock();
 304              		.loc 1 11 5
 305 0188 63020504 		beqz	a0,.L25
 306              	.LVL30:
 307              	.L24:
  12:src/Sem.cpp   ****     delete handle;
 308              		.loc 1 12 5 discriminator 2
  12:src/Sem.cpp   ****     delete handle;
 309              		.loc 1 12 35 discriminator 2
  12:src/Sem.cpp   ****     delete handle;
 310              		.loc 1 12 19 is_stmt 0 discriminator 2
 311 018c 83B78400 		ld	a5,8(s1)
  12:src/Sem.cpp   ****     delete handle;
 312              		.loc 1 12 35 discriminator 2
 313 0190 83B70700 		ld	a5,0(a5)
 314 0194 638A0700 		beqz	a5,.L23
  12:src/Sem.cpp   ****     delete handle;
 315              		.loc 1 12 41 is_stmt 1 discriminator 1
  12:src/Sem.cpp   ****     delete handle;
 316              		.loc 1 12 56 is_stmt 0 discriminator 1
 317 0198 13850400 		mv	a0,s1
 318 019c 97000000 		call	_ZN3Sem7deblockEv
 318      E7800000 
 319              	.LVL31:
  12:src/Sem.cpp   ****     delete handle;
 320              		.loc 1 12 5 discriminator 1
 321 01a4 6FF09FFE 		j	.L24
 322              	.L23:
  13:src/Sem.cpp   ****     return 0;
 323              		.loc 1 13 5 is_stmt 1 discriminator 1
  13:src/Sem.cpp   ****     return 0;
 324              		.loc 1 13 12 is_stmt 0 discriminator 1
 325 01a8 13850400 		mv	a0,s1
 326 01ac 97000000 		call	_ZdlPv@plt
 326      E7800000 
 327              	.LVL32:
  14:src/Sem.cpp   **** }
 328              		.loc 1 14 5 is_stmt 1 discriminator 1
  14:src/Sem.cpp   **** }
 329              		.loc 1 14 12 is_stmt 0 discriminator 1
 330 01b4 13050000 		li	a0,0
 331              	.L22:
  15:src/Sem.cpp   **** 
 332              		.loc 1 15 1
 333 01b8 83308101 		ld	ra,24(sp)
 334              		.cfi_remember_state
 335              		.cfi_restore 1
 336 01bc 03340101 		ld	s0,16(sp)
 337              		.cfi_restore 8
 338              		.cfi_def_cfa 2, 32
 339 01c0 83348100 		ld	s1,8(sp)
 340              		.cfi_restore 9
 341              	.LVL33:
GAS LISTING /tmp/ccwg4dHo.s 			page 9


 342 01c4 13010102 		addi	sp,sp,32
 343              		.cfi_def_cfa_offset 0
 344 01c8 67800000 		jr	ra
 345              	.LVL34:
 346              	.L25:
 347              		.cfi_restore_state
  11:src/Sem.cpp   ****     while(handle->blockedThreads->head) handle->deblock();
 348              		.loc 1 11 25
 349 01cc 1305F0FF 		li	a0,-1
 350 01d0 6FF09FFE 		j	.L22
 351              		.cfi_endproc
 352              	.LFE34:
 354              		.align	2
 355              		.globl	_ZN3Sem9semSignalEPS_
 357              	_ZN3Sem9semSignalEPS_:
 358              	.LFB36:
  23:src/Sem.cpp   ****     if(!id) return -1;
 359              		.loc 1 23 29 is_stmt 1
 360              		.cfi_startproc
 361              	.LVL35:
  24:src/Sem.cpp   ****     if(++id->init <= 0) id->deblock();
 362              		.loc 1 24 5
 363 01d4 63060504 		beqz	a0,.L29
  25:src/Sem.cpp   ****     return 0;
 364              		.loc 1 25 5
  25:src/Sem.cpp   ****     return 0;
 365              		.loc 1 25 14 is_stmt 0
 366 01d8 83270500 		lw	a5,0(a0)
  25:src/Sem.cpp   ****     return 0;
 367              		.loc 1 25 8
 368 01dc 9B871700 		addiw	a5,a5,1
 369 01e0 1B870700 		sext.w	a4,a5
  25:src/Sem.cpp   ****     return 0;
 370              		.loc 1 25 19
 371 01e4 2320F500 		sw	a5,0(a0)
  25:src/Sem.cpp   ****     return 0;
 372              		.loc 1 25 5
 373 01e8 6356E000 		blez	a4,.L35
  26:src/Sem.cpp   **** }
 374              		.loc 1 26 12
 375 01ec 13050000 		li	a0,0
 376              	.LVL36:
  27:src/Sem.cpp   **** 
 377              		.loc 1 27 1
 378 01f0 67800000 		ret
 379              	.LVL37:
 380              	.L35:
  23:src/Sem.cpp   ****     if(!id) return -1;
 381              		.loc 1 23 29 discriminator 1
 382 01f4 130101FF 		addi	sp,sp,-16
 383              		.cfi_def_cfa_offset 16
 384 01f8 23341100 		sd	ra,8(sp)
 385 01fc 23308100 		sd	s0,0(sp)
 386              		.cfi_offset 1, -8
 387              		.cfi_offset 8, -16
 388 0200 13040101 		addi	s0,sp,16
 389              		.cfi_def_cfa 8, 0
GAS LISTING /tmp/ccwg4dHo.s 			page 10


  25:src/Sem.cpp   ****     return 0;
 390              		.loc 1 25 25 is_stmt 1 discriminator 1
  25:src/Sem.cpp   ****     return 0;
 391              		.loc 1 25 36 is_stmt 0 discriminator 1
 392 0204 97000000 		call	_ZN3Sem7deblockEv
 392      E7800000 
 393              	.LVL38:
  26:src/Sem.cpp   **** }
 394              		.loc 1 26 12 discriminator 1
 395 020c 13050000 		li	a0,0
  27:src/Sem.cpp   **** 
 396              		.loc 1 27 1 discriminator 1
 397 0210 83308100 		ld	ra,8(sp)
 398              		.cfi_restore 1
 399 0214 03340100 		ld	s0,0(sp)
 400              		.cfi_restore 8
 401              		.cfi_def_cfa 2, 16
 402 0218 13010101 		addi	sp,sp,16
 403              		.cfi_def_cfa_offset 0
 404 021c 67800000 		jr	ra
 405              	.LVL39:
 406              	.L29:
  24:src/Sem.cpp   ****     if(++id->init <= 0) id->deblock();
 407              		.loc 1 24 21
 408 0220 1305F0FF 		li	a0,-1
 409              	.LVL40:
 410 0224 67800000 		ret
 411              		.cfi_endproc
 412              	.LFE36:
 414              	.Letext0:
 415              		.file 4 "src/../h/../lib/hw.h"
 416              		.file 5 "src/../h/../h/Scheduler.hpp"
 417              		.file 6 "src/../h/Blocked.hpp"
 418              		.file 7 "src/../h/syscall_c.hpp"
 419              		.file 8 "src/../h/../h/syscall_cpp.hpp"
 3061              		.align	3
 3064              	DW.ref.__gxx_personality_v0:
 3065 0000 00000000 		.dword	__gxx_personality_v0
 3065      00000000 
 3066              		.ident	"GCC: (Ubuntu 9.4.0-1ubuntu1~20.04) 9.4.0"
 3067              		.section	.note.GNU-stack,"",@progbits
GAS LISTING /tmp/ccwg4dHo.s 			page 11


DEFINED SYMBOLS
                            *ABS*:0000000000000000 Sem.cpp
     /tmp/ccwg4dHo.s:9      .text:0000000000000000 _ZN3Sem7semOpenEPPS_j
     /tmp/ccwg4dHo.s:13     .text:0000000000000000 .L0 
     /tmp/ccwg4dHo.s:3064   .data.rel.local.DW.ref.__gxx_personality_v0:0000000000000000 DW.ref.__gxx_personality_v0
     /tmp/ccwg4dHo.s:17     .text:0000000000000000 .L0 
     /tmp/ccwg4dHo.s:18     .text:0000000000000004 .L0 
     /tmp/ccwg4dHo.s:24     .text:0000000000000018 .L0 
     /tmp/ccwg4dHo.s:25     .text:0000000000000018 .L0 
     /tmp/ccwg4dHo.s:26     .text:0000000000000018 .L0 
     /tmp/ccwg4dHo.s:27     .text:0000000000000018 .L0 
     /tmp/ccwg4dHo.s:28     .text:0000000000000018 .L0 
     /tmp/ccwg4dHo.s:30     .text:000000000000001c .L0 
     /tmp/ccwg4dHo.s:34     .text:0000000000000024 .L0 
     /tmp/ccwg4dHo.s:35     .text:0000000000000024 .L0 
     /tmp/ccwg4dHo.s:47     .text:0000000000000034 .L0 
     /tmp/ccwg4dHo.s:60     .text:0000000000000050 .L0 
     /tmp/ccwg4dHo.s:62     .text:0000000000000054 .L0 
     /tmp/ccwg4dHo.s:64     .text:0000000000000058 .L0 
     /tmp/ccwg4dHo.s:67     .text:000000000000005c .L0 
     /tmp/ccwg4dHo.s:68     .text:0000000000000060 .L0 
     /tmp/ccwg4dHo.s:69     .text:0000000000000060 .L0 
     /tmp/ccwg4dHo.s:71     .text:0000000000000064 .L0 
     /tmp/ccwg4dHo.s:72     .text:0000000000000064 .L0 
     /tmp/ccwg4dHo.s:74     .text:0000000000000068 .L0 
     /tmp/ccwg4dHo.s:76     .text:000000000000006c .L0 
     /tmp/ccwg4dHo.s:79     .text:0000000000000070 .L0 
     /tmp/ccwg4dHo.s:81     .text:0000000000000074 .L0 
     /tmp/ccwg4dHo.s:85     .text:0000000000000078 .L0 
     /tmp/ccwg4dHo.s:87     .text:0000000000000078 .L0 
     /tmp/ccwg4dHo.s:94     .text:0000000000000084 .L0 
     /tmp/ccwg4dHo.s:102    .text:000000000000009c .L0 
     /tmp/ccwg4dHo.s:128    .text:000000000000009c _ZN3Sem5blockEv
     /tmp/ccwg4dHo.s:131    .text:000000000000009c .L0 
     /tmp/ccwg4dHo.s:133    .text:000000000000009c .L0 
     /tmp/ccwg4dHo.s:134    .text:00000000000000a0 .L0 
     /tmp/ccwg4dHo.s:137    .text:00000000000000a8 .L0 
     /tmp/ccwg4dHo.s:138    .text:00000000000000a8 .L0 
     /tmp/ccwg4dHo.s:140    .text:00000000000000ac .L0 
     /tmp/ccwg4dHo.s:142    .text:00000000000000ac .L0 
     /tmp/ccwg4dHo.s:143    .text:00000000000000ac .L0 
     /tmp/ccwg4dHo.s:150    .text:00000000000000b8 .L0 
     /tmp/ccwg4dHo.s:151    .text:00000000000000b8 .L0 
     /tmp/ccwg4dHo.s:157    .text:00000000000000c0 .L0 
     /tmp/ccwg4dHo.s:158    .text:00000000000000c0 .L0 
     /tmp/ccwg4dHo.s:163    .text:00000000000000cc .L0 
     /tmp/ccwg4dHo.s:164    .text:00000000000000cc .L0 
     /tmp/ccwg4dHo.s:167    .text:00000000000000d4 .L0 
     /tmp/ccwg4dHo.s:168    .text:00000000000000d8 .L0 
     /tmp/ccwg4dHo.s:170    .text:00000000000000dc .L0 
     /tmp/ccwg4dHo.s:171    .text:00000000000000dc .L0 
     /tmp/ccwg4dHo.s:173    .text:00000000000000e0 .L0 
     /tmp/ccwg4dHo.s:175    .text:00000000000000e4 .L0 
     /tmp/ccwg4dHo.s:181    .text:00000000000000e4 _ZN3Sem7semWaitEPS_
     /tmp/ccwg4dHo.s:184    .text:00000000000000e4 .L0 
     /tmp/ccwg4dHo.s:186    .text:00000000000000e4 .L0 
     /tmp/ccwg4dHo.s:187    .text:00000000000000e4 .L0 
GAS LISTING /tmp/ccwg4dHo.s 			page 12


     /tmp/ccwg4dHo.s:189    .text:00000000000000e8 .L0 
     /tmp/ccwg4dHo.s:190    .text:00000000000000e8 .L0 
     /tmp/ccwg4dHo.s:192    .text:00000000000000ec .L0 
     /tmp/ccwg4dHo.s:194    .text:00000000000000f0 .L0 
     /tmp/ccwg4dHo.s:196    .text:00000000000000f4 .L0 
     /tmp/ccwg4dHo.s:199    .text:00000000000000fc .L0 
     /tmp/ccwg4dHo.s:202    .text:0000000000000100 .L0 
     /tmp/ccwg4dHo.s:206    .text:0000000000000104 .L0 
     /tmp/ccwg4dHo.s:207    .text:0000000000000108 .L0 
     /tmp/ccwg4dHo.s:210    .text:0000000000000110 .L0 
     /tmp/ccwg4dHo.s:211    .text:0000000000000110 .L0 
     /tmp/ccwg4dHo.s:213    .text:0000000000000114 .L0 
     /tmp/ccwg4dHo.s:215    .text:0000000000000114 .L0 
     /tmp/ccwg4dHo.s:216    .text:0000000000000114 .L0 
     /tmp/ccwg4dHo.s:219    .text:000000000000011c .L0 
     /tmp/ccwg4dHo.s:221    .text:0000000000000120 .L0 
     /tmp/ccwg4dHo.s:222    .text:0000000000000124 .L0 
     /tmp/ccwg4dHo.s:224    .text:0000000000000128 .L0 
     /tmp/ccwg4dHo.s:225    .text:0000000000000128 .L0 
     /tmp/ccwg4dHo.s:227    .text:000000000000012c .L0 
     /tmp/ccwg4dHo.s:232    .text:0000000000000130 .L0 
     /tmp/ccwg4dHo.s:235    .text:0000000000000138 .L0 
     /tmp/ccwg4dHo.s:241    .text:0000000000000138 _ZN3Sem7deblockEv
     /tmp/ccwg4dHo.s:244    .text:0000000000000138 .L0 
     /tmp/ccwg4dHo.s:246    .text:0000000000000138 .L0 
     /tmp/ccwg4dHo.s:247    .text:000000000000013c .L0 
     /tmp/ccwg4dHo.s:250    .text:0000000000000144 .L0 
     /tmp/ccwg4dHo.s:251    .text:0000000000000144 .L0 
     /tmp/ccwg4dHo.s:253    .text:0000000000000148 .L0 
     /tmp/ccwg4dHo.s:255    .text:0000000000000148 .L0 
     /tmp/ccwg4dHo.s:256    .text:0000000000000148 .L0 
     /tmp/ccwg4dHo.s:263    .text:0000000000000154 .L0 
     /tmp/ccwg4dHo.s:264    .text:0000000000000154 .L0 
     /tmp/ccwg4dHo.s:265    .text:0000000000000154 .L0 
     /tmp/ccwg4dHo.s:270    .text:0000000000000158 .L0 
     /tmp/ccwg4dHo.s:271    .text:0000000000000158 .L0 
     /tmp/ccwg4dHo.s:274    .text:0000000000000160 .L0 
     /tmp/ccwg4dHo.s:275    .text:0000000000000164 .L0 
     /tmp/ccwg4dHo.s:277    .text:0000000000000168 .L0 
     /tmp/ccwg4dHo.s:278    .text:0000000000000168 .L0 
     /tmp/ccwg4dHo.s:280    .text:000000000000016c .L0 
     /tmp/ccwg4dHo.s:282    .text:0000000000000170 .L0 
     /tmp/ccwg4dHo.s:288    .text:0000000000000170 _ZN3Sem8semCloseEPS_
     /tmp/ccwg4dHo.s:291    .text:0000000000000170 .L0 
     /tmp/ccwg4dHo.s:293    .text:0000000000000170 .L0 
     /tmp/ccwg4dHo.s:294    .text:0000000000000174 .L0 
     /tmp/ccwg4dHo.s:298    .text:0000000000000180 .L0 
     /tmp/ccwg4dHo.s:299    .text:0000000000000180 .L0 
     /tmp/ccwg4dHo.s:300    .text:0000000000000180 .L0 
     /tmp/ccwg4dHo.s:302    .text:0000000000000184 .L0 
     /tmp/ccwg4dHo.s:305    .text:0000000000000188 .L0 
     /tmp/ccwg4dHo.s:309    .text:000000000000018c .L0 
     /tmp/ccwg4dHo.s:310    .text:000000000000018c .L0 
     /tmp/ccwg4dHo.s:311    .text:000000000000018c .L0 
     /tmp/ccwg4dHo.s:313    .text:0000000000000190 .L0 
     /tmp/ccwg4dHo.s:316    .text:0000000000000198 .L0 
     /tmp/ccwg4dHo.s:317    .text:0000000000000198 .L0 
GAS LISTING /tmp/ccwg4dHo.s 			page 13


     /tmp/ccwg4dHo.s:321    .text:00000000000001a4 .L0 
     /tmp/ccwg4dHo.s:324    .text:00000000000001a8 .L0 
     /tmp/ccwg4dHo.s:325    .text:00000000000001a8 .L0 
     /tmp/ccwg4dHo.s:329    .text:00000000000001b4 .L0 
     /tmp/ccwg4dHo.s:330    .text:00000000000001b4 .L0 
     /tmp/ccwg4dHo.s:333    .text:00000000000001b8 .L0 
     /tmp/ccwg4dHo.s:334    .text:00000000000001bc .L0 
     /tmp/ccwg4dHo.s:335    .text:00000000000001bc .L0 
     /tmp/ccwg4dHo.s:337    .text:00000000000001c0 .L0 
     /tmp/ccwg4dHo.s:338    .text:00000000000001c0 .L0 
     /tmp/ccwg4dHo.s:340    .text:00000000000001c4 .L0 
     /tmp/ccwg4dHo.s:343    .text:00000000000001c8 .L0 
     /tmp/ccwg4dHo.s:347    .text:00000000000001cc .L0 
     /tmp/ccwg4dHo.s:349    .text:00000000000001cc .L0 
     /tmp/ccwg4dHo.s:351    .text:00000000000001d4 .L0 
     /tmp/ccwg4dHo.s:357    .text:00000000000001d4 _ZN3Sem9semSignalEPS_
     /tmp/ccwg4dHo.s:360    .text:00000000000001d4 .L0 
     /tmp/ccwg4dHo.s:362    .text:00000000000001d4 .L0 
     /tmp/ccwg4dHo.s:363    .text:00000000000001d4 .L0 
     /tmp/ccwg4dHo.s:365    .text:00000000000001d8 .L0 
     /tmp/ccwg4dHo.s:366    .text:00000000000001d8 .L0 
     /tmp/ccwg4dHo.s:368    .text:00000000000001dc .L0 
     /tmp/ccwg4dHo.s:371    .text:00000000000001e4 .L0 
     /tmp/ccwg4dHo.s:373    .text:00000000000001e8 .L0 
     /tmp/ccwg4dHo.s:375    .text:00000000000001ec .L0 
     /tmp/ccwg4dHo.s:378    .text:00000000000001f0 .L0 
     /tmp/ccwg4dHo.s:382    .text:00000000000001f4 .L0 
     /tmp/ccwg4dHo.s:383    .text:00000000000001f8 .L0 
     /tmp/ccwg4dHo.s:386    .text:0000000000000200 .L0 
     /tmp/ccwg4dHo.s:387    .text:0000000000000200 .L0 
     /tmp/ccwg4dHo.s:389    .text:0000000000000204 .L0 
     /tmp/ccwg4dHo.s:391    .text:0000000000000204 .L0 
     /tmp/ccwg4dHo.s:392    .text:0000000000000204 .L0 
     /tmp/ccwg4dHo.s:395    .text:000000000000020c .L0 
     /tmp/ccwg4dHo.s:397    .text:0000000000000210 .L0 
     /tmp/ccwg4dHo.s:398    .text:0000000000000214 .L0 
     /tmp/ccwg4dHo.s:400    .text:0000000000000218 .L0 
     /tmp/ccwg4dHo.s:401    .text:0000000000000218 .L0 
     /tmp/ccwg4dHo.s:403    .text:000000000000021c .L0 
     /tmp/ccwg4dHo.s:408    .text:0000000000000220 .L0 
     /tmp/ccwg4dHo.s:411    .text:0000000000000228 .L0 
     /tmp/ccwg4dHo.s:420    .text:0000000000000228 .L0 
     /tmp/ccwg4dHo.s:143    .text:00000000000000ac .L0 
     /tmp/ccwg4dHo.s:84     .text:0000000000000078 .L4
     /tmp/ccwg4dHo.s:65     .text:000000000000005c .L6
     /tmp/ccwg4dHo.s:230    .text:0000000000000130 .L12
     /tmp/ccwg4dHo.s:204    .text:0000000000000104 .L18
     /tmp/ccwg4dHo.s:346    .text:00000000000001cc .L25
     /tmp/ccwg4dHo.s:322    .text:00000000000001a8 .L23
     /tmp/ccwg4dHo.s:307    .text:000000000000018c .L24
     /tmp/ccwg4dHo.s:331    .text:00000000000001b8 .L22
     /tmp/ccwg4dHo.s:406    .text:0000000000000220 .L29
     /tmp/ccwg4dHo.s:380    .text:00000000000001f4 .L35
     /tmp/ccwg4dHo.s:37     .text:0000000000000028 .LEHB0
     /tmp/ccwg4dHo.s:10     .text:0000000000000000 .LFB33
     /tmp/ccwg4dHo.s:40     .text:0000000000000030 .LEHE0
     /tmp/ccwg4dHo.s:49     .text:000000000000003c .LEHB1
GAS LISTING /tmp/ccwg4dHo.s 			page 14


     /tmp/ccwg4dHo.s:52     .text:0000000000000044 .LEHE1
     /tmp/ccwg4dHo.s:90     .text:0000000000000080 .L5
     /tmp/ccwg4dHo.s:98     .text:0000000000000094 .LEHB2
     /tmp/ccwg4dHo.s:101    .text:000000000000009c .LEHE2
     /tmp/ccwg4dHo.s:1618   .debug_abbrev:0000000000000000 .Ldebug_abbrev0
     /tmp/ccwg4dHo.s:3022   .debug_str:000000000000055a .LASF104
     /tmp/ccwg4dHo.s:2874   .debug_str:0000000000000129 .LASF105
     /tmp/ccwg4dHo.s:2898   .debug_str:00000000000001d5 .LASF106
     /tmp/ccwg4dHo.s:5      .text:0000000000000000 .Ltext0
     /tmp/ccwg4dHo.s:414    .text:0000000000000228 .Letext0
     /tmp/ccwg4dHo.s:2826   .debug_line:0000000000000000 .Ldebug_line0
     /tmp/ccwg4dHo.s:2914   .debug_str:000000000000026a .LASF0
     /tmp/ccwg4dHo.s:2926   .debug_str:00000000000002cb .LASF1
     /tmp/ccwg4dHo.s:2978   .debug_str:000000000000045c .LASF2
     /tmp/ccwg4dHo.s:2988   .debug_str:00000000000004ac .LASF4
     /tmp/ccwg4dHo.s:2916   .debug_str:0000000000000277 .LASF3
     /tmp/ccwg4dHo.s:2836   .debug_str:0000000000000036 .LASF5
     /tmp/ccwg4dHo.s:2964   .debug_str:00000000000003e7 .LASF6
     /tmp/ccwg4dHo.s:2960   .debug_str:00000000000003c5 .LASF7
     /tmp/ccwg4dHo.s:2922   .debug_str:000000000000029b .LASF8
     /tmp/ccwg4dHo.s:2894   .debug_str:00000000000001b5 .LASF9
     /tmp/ccwg4dHo.s:2904   .debug_str:0000000000000223 .LASF10
     /tmp/ccwg4dHo.s:2860   .debug_str:00000000000000ca .LASF11
     /tmp/ccwg4dHo.s:2886   .debug_str:0000000000000186 .LASF12
     /tmp/ccwg4dHo.s:2866   .debug_str:00000000000000f1 .LASF13
     /tmp/ccwg4dHo.s:2858   .debug_str:00000000000000ba .LASF14
     /tmp/ccwg4dHo.s:3004   .debug_str:000000000000050c .LASF15
     /tmp/ccwg4dHo.s:2876   .debug_str:0000000000000135 .LASF16
     /tmp/ccwg4dHo.s:2998   .debug_str:00000000000004e4 .LASF17
     /tmp/ccwg4dHo.s:2892   .debug_str:00000000000001ab .LASF23
     /tmp/ccwg4dHo.s:3036   .debug_str:0000000000000671 .LASF22
     /tmp/ccwg4dHo.s:2974   .debug_str:0000000000000445 .LASF18
     /tmp/ccwg4dHo.s:2862   .debug_str:00000000000000d9 .LASF19
     /tmp/ccwg4dHo.s:2910   .debug_str:0000000000000245 .LASF24
     /tmp/ccwg4dHo.s:3000   .debug_str:00000000000004fa .LASF20
     /tmp/ccwg4dHo.s:2948   .debug_str:0000000000000380 .LASF21
     /tmp/ccwg4dHo.s:3048   .debug_str:00000000000006bc .LASF107
     /tmp/ccwg4dHo.s:2900   .debug_str:00000000000001f3 .LASF108
     /tmp/ccwg4dHo.s:3010   .debug_str:000000000000052a .LASF76
     /tmp/ccwg4dHo.s:3024   .debug_str:000000000000061e .LASF25
     /tmp/ccwg4dHo.s:3002   .debug_str:00000000000004ff .LASF26
     /tmp/ccwg4dHo.s:2940   .debug_str:000000000000032b .LASF28
     /tmp/ccwg4dHo.s:2954   .debug_str:00000000000003a4 .LASF109
     /tmp/ccwg4dHo.s:2990   .debug_str:00000000000004b3 .LASF27
     /tmp/ccwg4dHo.s:2834   .debug_str:000000000000002a .LASF29
     /tmp/ccwg4dHo.s:2928   .debug_str:00000000000002de .LASF30
     /tmp/ccwg4dHo.s:2976   .debug_str:000000000000044c .LASF32
     /tmp/ccwg4dHo.s:2872   .debug_str:0000000000000120 .LASF31
     /tmp/ccwg4dHo.s:2864   .debug_str:00000000000000de .LASF33
     /tmp/ccwg4dHo.s:3018   .debug_str:000000000000054d .LASF69
     /tmp/ccwg4dHo.s:2888   .debug_str:0000000000000195 .LASF93
     /tmp/ccwg4dHo.s:3006   .debug_str:0000000000000518 .LASF34
     /tmp/ccwg4dHo.s:3054   .debug_str:00000000000006de .LASF35
     /tmp/ccwg4dHo.s:2842   .debug_str:0000000000000054 .LASF36
     /tmp/ccwg4dHo.s:2984   .debug_str:0000000000000486 .LASF37
     /tmp/ccwg4dHo.s:3020   .debug_str:0000000000000552 .LASF56
     /tmp/ccwg4dHo.s:3012   .debug_str:0000000000000532 .LASF40
GAS LISTING /tmp/ccwg4dHo.s 			page 15


     /tmp/ccwg4dHo.s:2946   .debug_str:0000000000000369 .LASF42
     /tmp/ccwg4dHo.s:2848   .debug_str:0000000000000075 .LASF38
     /tmp/ccwg4dHo.s:3034   .debug_str:000000000000065a .LASF39
     /tmp/ccwg4dHo.s:2906   .debug_str:0000000000000231 .LASF41
     /tmp/ccwg4dHo.s:2958   .debug_str:00000000000003b1 .LASF43
     /tmp/ccwg4dHo.s:2838   .debug_str:000000000000003d .LASF44
     /tmp/ccwg4dHo.s:2934   .debug_str:000000000000030a .LASF45
     /tmp/ccwg4dHo.s:2980   .debug_str:000000000000046a .LASF46
     /tmp/ccwg4dHo.s:2856   .debug_str:00000000000000a5 .LASF47
     /tmp/ccwg4dHo.s:3014   .debug_str:000000000000053d .LASF48
     /tmp/ccwg4dHo.s:2882   .debug_str:000000000000016a .LASF49
     /tmp/ccwg4dHo.s:2944   .debug_str:000000000000035e .LASF50
     /tmp/ccwg4dHo.s:2868   .debug_str:0000000000000101 .LASF51
     /tmp/ccwg4dHo.s:3030   .debug_str:0000000000000646 .LASF52
     /tmp/ccwg4dHo.s:2950   .debug_str:0000000000000385 .LASF53
     /tmp/ccwg4dHo.s:2930   .debug_str:00000000000002e4 .LASF54
     /tmp/ccwg4dHo.s:3038   .debug_str:0000000000000676 .LASF55
     /tmp/ccwg4dHo.s:2994   .debug_str:00000000000004ca .LASF57
     /tmp/ccwg4dHo.s:2920   .debug_str:0000000000000292 .LASF58
     /tmp/ccwg4dHo.s:2830   .debug_str:0000000000000015 .LASF59
     /tmp/ccwg4dHo.s:3052   .debug_str:00000000000006d8 .LASF60
     /tmp/ccwg4dHo.s:3032   .debug_str:0000000000000652 .LASF61
     /tmp/ccwg4dHo.s:2996   .debug_str:00000000000004db .LASF62
     /tmp/ccwg4dHo.s:3026   .debug_str:0000000000000635 .LASF63
     /tmp/ccwg4dHo.s:2952   .debug_str:000000000000039c .LASF64
     /tmp/ccwg4dHo.s:3008   .debug_str:0000000000000521 .LASF65
     /tmp/ccwg4dHo.s:3028   .debug_str:000000000000063c .LASF66
     /tmp/ccwg4dHo.s:2878   .debug_str:000000000000014b .LASF67
     /tmp/ccwg4dHo.s:2840   .debug_str:0000000000000047 .LASF68
     /tmp/ccwg4dHo.s:2966   .debug_str:00000000000003ee .LASF110
     /tmp/ccwg4dHo.s:2852   .debug_str:000000000000008b .LASF70
     /tmp/ccwg4dHo.s:2932   .debug_str:00000000000002f1 .LASF72
     /tmp/ccwg4dHo.s:2908   .debug_str:000000000000023a .LASF71
     /tmp/ccwg4dHo.s:2844   .debug_str:000000000000005a .LASF73
     /tmp/ccwg4dHo.s:2936   .debug_str:000000000000031e .LASF74
     /tmp/ccwg4dHo.s:2938   .debug_str:0000000000000323 .LASF75
     /tmp/ccwg4dHo.s:2924   .debug_str:00000000000002ae .LASF77
     /tmp/ccwg4dHo.s:2982   .debug_str:0000000000000474 .LASF111
     /tmp/ccwg4dHo.s:2972   .debug_str:000000000000042f .LASF80
     /tmp/ccwg4dHo.s:3042   .debug_str:0000000000000696 .LASF112
     /tmp/ccwg4dHo.s:2846   .debug_str:0000000000000070 .LASF78
     /tmp/ccwg4dHo.s:2962   .debug_str:00000000000003d8 .LASF79
     /tmp/ccwg4dHo.s:2854   .debug_str:0000000000000099 .LASF81
     /tmp/ccwg4dHo.s:2870   .debug_str:0000000000000118 .LASF82
     /tmp/ccwg4dHo.s:2986   .debug_str:0000000000000496 .LASF83
     /tmp/ccwg4dHo.s:2918   .debug_str:0000000000000289 .LASF84
     /tmp/ccwg4dHo.s:2828   .debug_str:0000000000000000 .LASF85
     /tmp/ccwg4dHo.s:2956   .debug_str:00000000000003a9 .LASF86
     /tmp/ccwg4dHo.s:2968   .debug_str:0000000000000405 .LASF87
     /tmp/ccwg4dHo.s:2850   .debug_str:0000000000000081 .LASF88
     /tmp/ccwg4dHo.s:2970   .debug_str:0000000000000419 .LASF89
     /tmp/ccwg4dHo.s:2912   .debug_str:0000000000000264 .LASF90
     /tmp/ccwg4dHo.s:2880   .debug_str:000000000000015a .LASF91
     /tmp/ccwg4dHo.s:3050   .debug_str:00000000000006d0 .LASF92
     /tmp/ccwg4dHo.s:2992   .debug_str:00000000000004b8 .LASF94
     /tmp/ccwg4dHo.s:3016   .debug_str:0000000000000548 .LASF95
     /tmp/ccwg4dHo.s:242    .text:0000000000000138 .LFB38
GAS LISTING /tmp/ccwg4dHo.s 			page 16


     /tmp/ccwg4dHo.s:283    .text:0000000000000170 .LFE38
     /tmp/ccwg4dHo.s:2890   .debug_str:00000000000001a6 .LASF96
     /tmp/ccwg4dHo.s:2589   .debug_loc:0000000000000000 .LLST8
     /tmp/ccwg4dHo.s:2603   .debug_loc:0000000000000039 .LLST9
     /tmp/ccwg4dHo.s:261    .text:0000000000000154 .LBB18
     /tmp/ccwg4dHo.s:268    .text:0000000000000158 .LBE18
     /tmp/ccwg4dHo.s:2610   .debug_loc:000000000000005c .LLST10
     /tmp/ccwg4dHo.s:2618   .debug_loc:0000000000000080 .LLST11
     /tmp/ccwg4dHo.s:259    .text:0000000000000154 .LVL26
     /tmp/ccwg4dHo.s:272    .text:0000000000000160 .LVL28
     /tmp/ccwg4dHo.s:129    .text:000000000000009c .LFB37
     /tmp/ccwg4dHo.s:176    .text:00000000000000e4 .LFE37
     /tmp/ccwg4dHo.s:2625   .debug_loc:00000000000000a3 .LLST4
     /tmp/ccwg4dHo.s:146    .text:00000000000000b8 .LBB16
     /tmp/ccwg4dHo.s:155    .text:00000000000000c0 .LBE16
     /tmp/ccwg4dHo.s:2639   .debug_loc:00000000000000dc .LLST5
     /tmp/ccwg4dHo.s:2647   .debug_loc:0000000000000100 .LLST6
     /tmp/ccwg4dHo.s:161    .text:00000000000000cc .LVL16
     /tmp/ccwg4dHo.s:165    .text:00000000000000d4 .LVL17
     /tmp/ccwg4dHo.s:358    .text:00000000000001d4 .LFB36
     /tmp/ccwg4dHo.s:412    .text:0000000000000228 .LFE36
     /tmp/ccwg4dHo.s:2654   .debug_loc:0000000000000123 .LLST13
     /tmp/ccwg4dHo.s:393    .text:000000000000020c .LVL38
     /tmp/ccwg4dHo.s:182    .text:00000000000000e4 .LFB35
     /tmp/ccwg4dHo.s:236    .text:0000000000000138 .LFE35
     /tmp/ccwg4dHo.s:2690   .debug_loc:00000000000001ae .LLST7
     /tmp/ccwg4dHo.s:217    .text:000000000000011c .LVL21
     /tmp/ccwg4dHo.s:289    .text:0000000000000170 .LFB34
     /tmp/ccwg4dHo.s:352    .text:00000000000001d4 .LFE34
     /tmp/ccwg4dHo.s:3044   .debug_str:00000000000006a6 .LASF97
     /tmp/ccwg4dHo.s:2726   .debug_loc:0000000000000239 .LLST12
     /tmp/ccwg4dHo.s:319    .text:00000000000001a4 .LVL31
     /tmp/ccwg4dHo.s:327    .text:00000000000001b4 .LVL32
     /tmp/ccwg4dHo.s:103    .text:000000000000009c .LFE33
     /tmp/ccwg4dHo.s:2748   .debug_loc:0000000000000298 .LLST0
     /tmp/ccwg4dHo.s:2777   .debug_loc:000000000000030d .LLST1
     /tmp/ccwg4dHo.s:43     .text:0000000000000034 .LBB14
     /tmp/ccwg4dHo.s:58     .text:0000000000000050 .LBE14
     /tmp/ccwg4dHo.s:2791   .debug_loc:0000000000000346 .LLST2
     /tmp/ccwg4dHo.s:2802   .debug_loc:000000000000037c .LLST3
     /tmp/ccwg4dHo.s:51     .text:0000000000000044 .LVL4
     /tmp/ccwg4dHo.s:39     .text:0000000000000030 .LVL2
     /tmp/ccwg4dHo.s:96     .text:0000000000000090 .LVL10
     /tmp/ccwg4dHo.s:100    .text:000000000000009c .LVL11
     /tmp/ccwg4dHo.s:2942   .debug_str:0000000000000352 .LASF98
     /tmp/ccwg4dHo.s:2896   .debug_str:00000000000001c5 .LASF99
     /tmp/ccwg4dHo.s:3040   .debug_str:000000000000068f .LASF100
     /tmp/ccwg4dHo.s:2832   .debug_str:000000000000001a .LASF102
     /tmp/ccwg4dHo.s:2884   .debug_str:0000000000000180 .LASF101
     /tmp/ccwg4dHo.s:3056   .debug_str:00000000000006f1 .LASF103
     /tmp/ccwg4dHo.s:3046   .debug_str:00000000000006ad .LASF113
     /tmp/ccwg4dHo.s:2902   .debug_str:000000000000020b .LASF114
     /tmp/ccwg4dHo.s:245    .text:0000000000000138 .LVL24
     /tmp/ccwg4dHo.s:257    .text:000000000000014c .LVL25
     /tmp/ccwg4dHo.s:266    .text:0000000000000158 .LVL27
     /tmp/ccwg4dHo.s:132    .text:000000000000009c .LVL12
     /tmp/ccwg4dHo.s:159    .text:00000000000000c4 .LVL15
GAS LISTING /tmp/ccwg4dHo.s 			page 17


     /tmp/ccwg4dHo.s:145    .text:00000000000000b8 .LVL13
     /tmp/ccwg4dHo.s:153    .text:00000000000000c0 .LVL14
     /tmp/ccwg4dHo.s:361    .text:00000000000001d4 .LVL35
     /tmp/ccwg4dHo.s:376    .text:00000000000001f0 .LVL36
     /tmp/ccwg4dHo.s:379    .text:00000000000001f4 .LVL37
     /tmp/ccwg4dHo.s:405    .text:0000000000000220 .LVL39
     /tmp/ccwg4dHo.s:409    .text:0000000000000224 .LVL40
     /tmp/ccwg4dHo.s:185    .text:00000000000000e4 .LVL18
     /tmp/ccwg4dHo.s:200    .text:0000000000000100 .LVL19
     /tmp/ccwg4dHo.s:203    .text:0000000000000104 .LVL20
     /tmp/ccwg4dHo.s:229    .text:0000000000000130 .LVL22
     /tmp/ccwg4dHo.s:233    .text:0000000000000134 .LVL23
     /tmp/ccwg4dHo.s:292    .text:0000000000000170 .LVL29
     /tmp/ccwg4dHo.s:306    .text:000000000000018c .LVL30
     /tmp/ccwg4dHo.s:341    .text:00000000000001c4 .LVL33
     /tmp/ccwg4dHo.s:345    .text:00000000000001cc .LVL34
     /tmp/ccwg4dHo.s:16     .text:0000000000000000 .LVL0
     /tmp/ccwg4dHo.s:36     .text:0000000000000028 .LVL1
     /tmp/ccwg4dHo.s:77     .text:000000000000006c .LVL6
     /tmp/ccwg4dHo.s:83     .text:0000000000000078 .LVL7
     /tmp/ccwg4dHo.s:92     .text:0000000000000084 .LVL9
     /tmp/ccwg4dHo.s:42     .text:0000000000000034 .LVL3
     /tmp/ccwg4dHo.s:56     .text:0000000000000050 .LVL5
     /tmp/ccwg4dHo.s:89     .text:0000000000000080 .LVL8
     /tmp/ccwg4dHo.s:421    .debug_info:0000000000000000 .Ldebug_info0
     /tmp/ccwg4dHo.s:106    .gcc_except_table:0000000000000000 .LLSDA33

UNDEFINED SYMBOLS
_Znwm
_ZdlPv
_Unwind_Resume
__gxx_personality_v0
_ZN3TCB7runningE
_ZN7Blocked3putEP3TCB
_ZN3TCB5yieldEv
_ZN7Blocked3getEv
_ZN9Scheduler3putEP3TCB
