GAS LISTING /tmp/ccUIydbg.s 			page 1


   1              		.file	"Sleeping.cpp"
   2              		.option pic
   3              		.option norelax
   4              		.text
   5              	.Ltext0:
   6              		.align	2
   7              		.globl	_ZN8Sleeping3getEv
   9              	_ZN8Sleeping3getEv:
  10              	.LFB18:
  11              		.file 1 "src/Sleeping.cpp"
   1:src/Sleeping.cpp **** #include "../h/Sleeping.hpp"
   2:src/Sleeping.cpp **** 
   3:src/Sleeping.cpp **** Sleeping::Elem* Sleeping::head = nullptr;
   4:src/Sleeping.cpp **** 
   5:src/Sleeping.cpp **** void Sleeping::get() {
  12              		.loc 1 5 22
  13              		.cfi_startproc
  14 0000 130101FE 		addi	sp,sp,-32
  15              		.cfi_def_cfa_offset 32
  16 0004 233C1100 		sd	ra,24(sp)
  17 0008 23388100 		sd	s0,16(sp)
  18 000c 23349100 		sd	s1,8(sp)
  19 0010 23302101 		sd	s2,0(sp)
  20              		.cfi_offset 1, -8
  21              		.cfi_offset 8, -16
  22              		.cfi_offset 9, -24
  23              		.cfi_offset 18, -32
  24 0014 13040102 		addi	s0,sp,32
  25              		.cfi_def_cfa 8, 0
   6:src/Sleeping.cpp ****     if(!head) return;
  26              		.loc 1 6 5
  27              		.loc 1 6 8 is_stmt 0
  28 0018 97040000 		ld	s1,.LANCHOR0
  28      83B40400 
  29              		.loc 1 6 5
  30 0020 638A0400 		beqz	s1,.L1
   7:src/Sleeping.cpp ****     head->time--;
  31              		.loc 1 7 5 is_stmt 1
  32              		.loc 1 7 11 is_stmt 0
  33 0024 83B70401 		ld	a5,16(s1)
  34              		.loc 1 7 15
  35 0028 9387F7FF 		addi	a5,a5,-1
  36 002c 23B8F400 		sd	a5,16(s1)
   8:src/Sleeping.cpp ****     if(!head->time) {
  37              		.loc 1 8 5 is_stmt 1
  38              	.LBB13:
  39 0030 63800702 		beqz	a5,.L3
  40              	.L1:
  41              	.LBE13:
   9:src/Sleeping.cpp ****         Elem *cur = head;
  10:src/Sleeping.cpp ****         while(cur) {
  11:src/Sleeping.cpp ****             if(!cur->time) {
  12:src/Sleeping.cpp ****                 Scheduler::put(cur->thread);
  13:src/Sleeping.cpp ****                 cur->thread->setSleeping(false);
  14:src/Sleeping.cpp ****                 Elem *f = cur;
  15:src/Sleeping.cpp ****                 cur = cur->next;
  16:src/Sleeping.cpp ****                 delete f;
GAS LISTING /tmp/ccUIydbg.s 			page 2


  17:src/Sleeping.cpp ****             } else {
  18:src/Sleeping.cpp ****                 head = cur;
  19:src/Sleeping.cpp ****                 break;
  20:src/Sleeping.cpp ****             }
  21:src/Sleeping.cpp ****         }
  22:src/Sleeping.cpp ****         if(!cur) head = cur;
  23:src/Sleeping.cpp ****     }
  24:src/Sleeping.cpp **** }
  42              		.loc 1 24 1 is_stmt 0
  43 0034 83308101 		ld	ra,24(sp)
  44              		.cfi_remember_state
  45              		.cfi_restore 1
  46 0038 03340101 		ld	s0,16(sp)
  47              		.cfi_restore 8
  48              		.cfi_def_cfa 2, 32
  49 003c 83348100 		ld	s1,8(sp)
  50              		.cfi_restore 9
  51 0040 03390100 		ld	s2,0(sp)
  52              		.cfi_restore 18
  53 0044 13010102 		addi	sp,sp,32
  54              		.cfi_def_cfa_offset 0
  55 0048 67800000 		jr	ra
  56              	.LVL0:
  57              	.L6:
  58              		.cfi_restore_state
   5:src/Sleeping.cpp ****     if(!head) return;
  59              		.loc 1 5 22
  60 004c 93040900 		mv	s1,s2
  61              	.LVL1:
  62              	.L3:
  63              	.LBB20:
  64              	.LBB14:
  10:src/Sleeping.cpp ****             if(!cur->time) {
  65              		.loc 1 10 9 is_stmt 1
  10:src/Sleeping.cpp ****             if(!cur->time) {
  66              		.loc 1 10 15
  67 0050 63800404 		beqz	s1,.L4
  68              	.LBE14:
  69              	.LBE20:
  11:src/Sleeping.cpp ****                 Scheduler::put(cur->thread);
  70              		.loc 1 11 13
  71              	.LBB21:
  72              	.LBB19:
  73              	.LBB15:
  11:src/Sleeping.cpp ****                 Scheduler::put(cur->thread);
  74              		.loc 1 11 22 is_stmt 0
  75 0054 83B70401 		ld	a5,16(s1)
  11:src/Sleeping.cpp ****                 Scheduler::put(cur->thread);
  76              		.loc 1 11 13
  77 0058 63980702 		bnez	a5,.L5
  78              	.LBB16:
  12:src/Sleeping.cpp ****                 cur->thread->setSleeping(false);
  79              		.loc 1 12 17 is_stmt 1
  12:src/Sleeping.cpp ****                 cur->thread->setSleeping(false);
  80              		.loc 1 12 31 is_stmt 0
  81 005c 03B50400 		ld	a0,0(s1)
  82 0060 97000000 		call	_ZN9Scheduler3putEP3TCB@plt
GAS LISTING /tmp/ccUIydbg.s 			page 3


  82      E7800000 
  83              	.LVL2:
  13:src/Sleeping.cpp ****                 Elem *f = cur;
  84              		.loc 1 13 17 is_stmt 1
  13:src/Sleeping.cpp ****                 Elem *f = cur;
  85              		.loc 1 13 22 is_stmt 0
  86 0068 83B70400 		ld	a5,0(s1)
  87              	.LVL3:
  88              	.LBB17:
  89              	.LBB18:
  90              		.file 2 "src/../h/../h/TCB.hpp"
   1:src/../h/../h/TCB.hpp **** #ifndef PROJECT_BASE_TCB_HPP
   2:src/../h/../h/TCB.hpp **** #define PROJECT_BASE_TCB_HPP
   3:src/../h/../h/TCB.hpp **** 
   4:src/../h/../h/TCB.hpp **** #include "../lib/hw.h"
   5:src/../h/../h/TCB.hpp **** #include "../h/Scheduler.hpp"
   6:src/../h/../h/TCB.hpp **** #include "../h/Sleeping.hpp"
   7:src/../h/../h/TCB.hpp **** 
   8:src/../h/../h/TCB.hpp **** class TCB {
   9:src/../h/../h/TCB.hpp **** public:
  10:src/../h/../h/TCB.hpp ****     friend class Sem;
  11:src/../h/../h/TCB.hpp ****     using Body = void (*)(void*);
  12:src/../h/../h/TCB.hpp **** 
  13:src/../h/../h/TCB.hpp ****     static int createThread(TCB **handle, Body body, void *arg, void *stack);
  14:src/../h/../h/TCB.hpp ****     ~TCB();
  15:src/../h/../h/TCB.hpp ****     static void yield();
  16:src/../h/../h/TCB.hpp ****     static void dispatch();
  17:src/../h/../h/TCB.hpp ****     static void join(TCB *handle);
  18:src/../h/../h/TCB.hpp ****     void waitList();
  19:src/../h/../h/TCB.hpp ****     static int sleep(time_t time);
  20:src/../h/../h/TCB.hpp **** 
  21:src/../h/../h/TCB.hpp ****     static TCB *running;
  22:src/../h/../h/TCB.hpp **** 
  23:src/../h/../h/TCB.hpp ****     bool isFinished() const { return finished; }
  24:src/../h/../h/TCB.hpp ****     void setFinished(bool f) { finished = f; }
  25:src/../h/../h/TCB.hpp ****     bool isJoined() const { return joined; }
  26:src/../h/../h/TCB.hpp ****     void setJoined(bool b) { joined = b; }
  27:src/../h/../h/TCB.hpp ****     bool isBlocked() const { return blocked; }
  28:src/../h/../h/TCB.hpp ****     void setBlocked(bool b) { blocked = b; }
  29:src/../h/../h/TCB.hpp ****     bool isSleeping() const { return sleeping; }
  30:src/../h/../h/TCB.hpp ****     void setSleeping(bool b) { sleeping = b; }
  91              		.loc 2 30 32 is_stmt 1
  92              		.loc 2 30 41 is_stmt 0
  93 006c A3850702 		sb	zero,43(a5)
  94              	.LVL4:
  95              	.LBE18:
  96              	.LBE17:
  14:src/Sleeping.cpp ****                 cur = cur->next;
  97              		.loc 1 14 17 is_stmt 1
  15:src/Sleeping.cpp ****                 delete f;
  98              		.loc 1 15 17
  15:src/Sleeping.cpp ****                 delete f;
  99              		.loc 1 15 21 is_stmt 0
 100 0070 03B98400 		ld	s2,8(s1)
 101              	.LVL5:
  16:src/Sleeping.cpp ****             } else {
 102              		.loc 1 16 17 is_stmt 1
GAS LISTING /tmp/ccUIydbg.s 			page 4


  16:src/Sleeping.cpp ****             } else {
 103              		.loc 1 16 25 is_stmt 0
 104 0074 E38C04FC 		beqz	s1,.L6
  16:src/Sleeping.cpp ****             } else {
 105              		.loc 1 16 24 discriminator 1
 106 0078 13850400 		mv	a0,s1
 107 007c 97000000 		call	_ZdlPv@plt
 107      E7800000 
 108              	.LVL6:
 109 0084 6FF09FFC 		j	.L6
 110              	.LVL7:
 111              	.L5:
 112              	.LBE16:
  18:src/Sleeping.cpp ****                 break;
 113              		.loc 1 18 17 is_stmt 1
  18:src/Sleeping.cpp ****                 break;
 114              		.loc 1 18 22 is_stmt 0
 115 0088 97070000 		sd	s1,.LANCHOR0,a5
 115      23B09700 
  19:src/Sleeping.cpp ****             }
 116              		.loc 1 19 17 is_stmt 1
 117              	.L4:
 118              	.LBE15:
  22:src/Sleeping.cpp ****     }
 119              		.loc 1 22 9
 120 0090 E39204FA 		bnez	s1,.L1
  22:src/Sleeping.cpp ****     }
 121              		.loc 1 22 18 discriminator 1
  22:src/Sleeping.cpp ****     }
 122              		.loc 1 22 23 is_stmt 0 discriminator 1
 123 0094 97070000 		sd	s1,.LANCHOR0,a5
 123      23B09700 
 124 009c 6FF09FF9 		j	.L1
 125              	.LBE19:
 126              	.LBE21:
 127              		.cfi_endproc
 128              	.LFE18:
 130              		.align	2
 131              		.globl	_ZN8Sleeping3putEP3TCBm
 133              	_ZN8Sleeping3putEP3TCBm:
 134              	.LFB19:
  25:src/Sleeping.cpp **** 
  26:src/Sleeping.cpp **** void Sleeping::put(TCB *t, time_t time) {
 135              		.loc 1 26 41 is_stmt 1
 136              		.cfi_startproc
 137              	.LVL8:
 138 00a0 130101FE 		addi	sp,sp,-32
 139              		.cfi_def_cfa_offset 32
 140 00a4 233C1100 		sd	ra,24(sp)
 141 00a8 23388100 		sd	s0,16(sp)
 142 00ac 23349100 		sd	s1,8(sp)
 143 00b0 23302101 		sd	s2,0(sp)
 144              		.cfi_offset 1, -8
 145              		.cfi_offset 8, -16
 146              		.cfi_offset 9, -24
 147              		.cfi_offset 18, -32
 148 00b4 13040102 		addi	s0,sp,32
GAS LISTING /tmp/ccUIydbg.s 			page 5


 149              		.cfi_def_cfa 8, 0
 150 00b8 13090500 		mv	s2,a0
 151 00bc 93840500 		mv	s1,a1
  27:src/Sleeping.cpp ****     Elem *newElem = new Elem(t, nullptr, time);
 152              		.loc 1 27 5
 153              		.loc 1 27 46 is_stmt 0
 154 00c0 13058001 		li	a0,24
 155              	.LVL9:
 156 00c4 97000000 		call	_Znwm@plt
 156      E7800000 
 157              	.LVL10:
 158              	.LBB22:
 159              	.LBB23:
 160              		.file 3 "src/../h/Sleeping.hpp"
   1:src/../h/Sleeping.hpp **** #ifndef PROJECT_BASE_SLEEPING_HPP
   2:src/../h/Sleeping.hpp **** #define PROJECT_BASE_SLEEPING_HPP
   3:src/../h/Sleeping.hpp **** 
   4:src/../h/Sleeping.hpp **** #include "../h/TCB.hpp"
   5:src/../h/Sleeping.hpp **** 
   6:src/../h/Sleeping.hpp **** class TCB;
   7:src/../h/Sleeping.hpp **** 
   8:src/../h/Sleeping.hpp **** class Sleeping {
   9:src/../h/Sleeping.hpp ****     struct Elem {
  10:src/../h/Sleeping.hpp ****         TCB *thread;
  11:src/../h/Sleeping.hpp ****         Elem *next = nullptr;
  12:src/../h/Sleeping.hpp ****         time_t time;
  13:src/../h/Sleeping.hpp ****         Elem(TCB *t, Elem *n, time_t tm) : thread(t), next(n), time(tm) {}
 161              		.loc 3 13 71
 162 00cc 23302501 		sd	s2,0(a0)
 163 00d0 23340500 		sd	zero,8(a0)
 164 00d4 23389500 		sd	s1,16(a0)
 165              	.LVL11:
 166              	.LBE23:
 167              	.LBE22:
  28:src/Sleeping.cpp **** 
  29:src/Sleeping.cpp ****     if(!head) { head = newElem; }
 168              		.loc 1 29 5 is_stmt 1
 169              	.LBB24:
 170              		.loc 1 29 8 is_stmt 0
 171 00d8 97070000 		ld	a5,.LANCHOR0
 171      83B70700 
 172              		.loc 1 29 5
 173 00e0 63860700 		beqz	a5,.L17
 174              	.LBB25:
  30:src/Sleeping.cpp ****     else {
  31:src/Sleeping.cpp ****         Elem *cur = head, *prev = nullptr;
 175              		.loc 1 31 28
 176 00e4 13060000 		li	a2,0
 177 00e8 6F000002 		j	.L9
 178              	.L17:
 179              	.LBE25:
  29:src/Sleeping.cpp ****     else {
 180              		.loc 1 29 17 is_stmt 1 discriminator 1
  29:src/Sleeping.cpp ****     else {
 181              		.loc 1 29 22 is_stmt 0 discriminator 1
 182 00ec 97070000 		sd	a0,.LANCHOR0,a5
 182      23B0A700 
GAS LISTING /tmp/ccUIydbg.s 			page 6


 183 00f4 6F004005 		j	.L8
 184              	.LVL12:
 185              	.L18:
 186              	.LBB26:
  32:src/Sleeping.cpp ****         for(; cur; cur = cur->next) {
  33:src/Sleeping.cpp ****             if(newElem->time >= cur->time) {
  34:src/Sleeping.cpp ****                 newElem->time -= cur->time;
 187              		.loc 1 34 17 is_stmt 1
 188              		.loc 1 34 31 is_stmt 0
 189 00f8 3307D740 		sub	a4,a4,a3
 190 00fc 2338E500 		sd	a4,16(a0)
  35:src/Sleeping.cpp ****             } else break;
  36:src/Sleeping.cpp ****             prev = cur;
 191              		.loc 1 36 13 is_stmt 1
 192              	.LVL13:
  32:src/Sleeping.cpp ****         for(; cur; cur = cur->next) {
 193              		.loc 1 32 9
 194              		.loc 1 36 18 is_stmt 0
 195 0100 13860700 		mv	a2,a5
  32:src/Sleeping.cpp ****         for(; cur; cur = cur->next) {
 196              		.loc 1 32 24
 197 0104 83B78700 		ld	a5,8(a5)
 198              	.LVL14:
 199              	.L9:
  32:src/Sleeping.cpp ****         for(; cur; cur = cur->next) {
 200              		.loc 1 32 9 is_stmt 1 discriminator 1
  32:src/Sleeping.cpp ****         for(; cur; cur = cur->next) {
 201              		.loc 1 32 15 discriminator 1
 202 0108 63880700 		beqz	a5,.L11
  33:src/Sleeping.cpp ****                 newElem->time -= cur->time;
 203              		.loc 1 33 13
  33:src/Sleeping.cpp ****                 newElem->time -= cur->time;
 204              		.loc 1 33 25 is_stmt 0
 205 010c 03370501 		ld	a4,16(a0)
  33:src/Sleeping.cpp ****                 newElem->time -= cur->time;
 206              		.loc 1 33 38
 207 0110 83B60701 		ld	a3,16(a5)
  33:src/Sleeping.cpp ****                 newElem->time -= cur->time;
 208              		.loc 1 33 13
 209 0114 E372D7FE 		bgeu	a4,a3,.L18
 210              	.L11:
  37:src/Sleeping.cpp ****         }
  38:src/Sleeping.cpp ****         if(prev) prev->next = newElem;
 211              		.loc 1 38 9 is_stmt 1
 212 0118 63040600 		beqz	a2,.L12
 213              		.loc 1 38 18 discriminator 1
 214              		.loc 1 38 29 is_stmt 0 discriminator 1
 215 011c 2334A600 		sd	a0,8(a2)
 216              	.L12:
  39:src/Sleeping.cpp ****         newElem->next = cur;
 217              		.loc 1 39 9 is_stmt 1
 218              		.loc 1 39 23 is_stmt 0
 219 0120 2334F500 		sd	a5,8(a0)
  40:src/Sleeping.cpp ****         if(!prev) head = newElem;
 220              		.loc 1 40 9 is_stmt 1
 221 0124 630E0602 		beqz	a2,.L19
 222              	.L13:
GAS LISTING /tmp/ccUIydbg.s 			page 7


  41:src/Sleeping.cpp ****         if(cur) {
 223              		.loc 1 41 9
 224 0128 63800702 		beqz	a5,.L8
  42:src/Sleeping.cpp ****             if(prev) cur->time -= newElem->time - prev->time;
 225              		.loc 1 42 13
 226 012c 63000604 		beqz	a2,.L14
 227              		.loc 1 42 22 discriminator 1
 228              		.loc 1 42 57 is_stmt 0 discriminator 1
 229 0130 03370601 		ld	a4,16(a2)
 230              		.loc 1 42 44 discriminator 1
 231 0134 83360501 		ld	a3,16(a0)
 232              		.loc 1 42 32 discriminator 1
 233 0138 B306D740 		sub	a3,a4,a3
 234 013c 03B70701 		ld	a4,16(a5)
 235 0140 3307D700 		add	a4,a4,a3
 236 0144 23B8E700 		sd	a4,16(a5)
 237              	.LVL15:
 238              	.L8:
 239              	.LBE26:
 240              	.LBE24:
  43:src/Sleeping.cpp ****             else cur->time -= newElem->time;
  44:src/Sleeping.cpp ****         }
  45:src/Sleeping.cpp ****     }
  46:src/Sleeping.cpp **** }
 241              		.loc 1 46 1
 242 0148 83308101 		ld	ra,24(sp)
 243              		.cfi_remember_state
 244              		.cfi_restore 1
 245 014c 03340101 		ld	s0,16(sp)
 246              		.cfi_restore 8
 247              		.cfi_def_cfa 2, 32
 248 0150 83348100 		ld	s1,8(sp)
 249              		.cfi_restore 9
 250              	.LVL16:
 251 0154 03390100 		ld	s2,0(sp)
 252              		.cfi_restore 18
 253              	.LVL17:
 254 0158 13010102 		addi	sp,sp,32
 255              		.cfi_def_cfa_offset 0
 256 015c 67800000 		jr	ra
 257              	.LVL18:
 258              	.L19:
 259              		.cfi_restore_state
 260              	.LBB28:
 261              	.LBB27:
  40:src/Sleeping.cpp ****         if(cur) {
 262              		.loc 1 40 19 is_stmt 1 discriminator 1
  40:src/Sleeping.cpp ****         if(cur) {
 263              		.loc 1 40 24 is_stmt 0 discriminator 1
 264 0160 17070000 		sd	a0,.LANCHOR0,a4
 264      2330A700 
 265 0168 6FF01FFC 		j	.L13
 266              	.L14:
  43:src/Sleeping.cpp ****             else cur->time -= newElem->time;
 267              		.loc 1 43 18 is_stmt 1
  43:src/Sleeping.cpp ****             else cur->time -= newElem->time;
 268              		.loc 1 43 40 is_stmt 0
GAS LISTING /tmp/ccUIydbg.s 			page 8


 269 016c 83360501 		ld	a3,16(a0)
  43:src/Sleeping.cpp ****             else cur->time -= newElem->time;
 270              		.loc 1 43 28
 271 0170 03B70701 		ld	a4,16(a5)
 272 0174 3307D740 		sub	a4,a4,a3
 273 0178 23B8E700 		sd	a4,16(a5)
 274              	.LBE27:
 275              	.LBE28:
 276              		.loc 1 46 1
 277 017c 6FF0DFFC 		j	.L8
 278              		.cfi_endproc
 279              	.LFE19:
 281              		.globl	_ZN8Sleeping4headE
 282              		.bss
 283              		.align	3
 284              		.set	.LANCHOR0,. + 0
 287              	_ZN8Sleeping4headE:
 288 0000 00000000 		.zero	8
 288      00000000 
 289              		.text
 290              	.Letext0:
 291              		.file 4 "src/../h/../h/../lib/hw.h"
 292              		.file 5 "src/../h/../h/../h/Scheduler.hpp"
GAS LISTING /tmp/ccUIydbg.s 			page 9

