GAS LISTING /tmp/cc0nkMex.s 			page 1


   1              		.file	"syscall_cpp.cpp"
   2              		.option pic
   3              		.option norelax
   4              		.text
   5              	.Ltext0:
   6              		.section	.text._ZN6Thread3runEv,"axG",@progbits,_ZN6Thread3runEv,comdat
   7              		.align	2
   8              		.weak	_ZN6Thread3runEv
  10              	_ZN6Thread3runEv:
  11              	.LFB27:
  12              		.file 1 "src/../h/syscall_cpp.hpp"
   1:src/../h/syscall_cpp.hpp **** #ifndef PROJECT_BASE_SYSCALL_CPP_HPP
   2:src/../h/syscall_cpp.hpp **** #define PROJECT_BASE_SYSCALL_CPP_HPP
   3:src/../h/syscall_cpp.hpp **** 
   4:src/../h/syscall_cpp.hpp **** #include "syscall_c.hpp"
   5:src/../h/syscall_cpp.hpp **** 
   6:src/../h/syscall_cpp.hpp **** void* operator new(uint64);
   7:src/../h/syscall_cpp.hpp **** void operator delete(void*) noexcept;
   8:src/../h/syscall_cpp.hpp **** void* operator new[](uint64);
   9:src/../h/syscall_cpp.hpp **** void operator delete[](void*) noexcept;
  10:src/../h/syscall_cpp.hpp **** 
  11:src/../h/syscall_cpp.hpp **** 
  12:src/../h/syscall_cpp.hpp **** class Thread {
  13:src/../h/syscall_cpp.hpp **** public:
  14:src/../h/syscall_cpp.hpp ****     Thread (void (*body)(void*), void* arg);
  15:src/../h/syscall_cpp.hpp ****     virtual ~Thread();
  16:src/../h/syscall_cpp.hpp ****     int start();
  17:src/../h/syscall_cpp.hpp ****     void join();
  18:src/../h/syscall_cpp.hpp ****     static void dispatch();
  19:src/../h/syscall_cpp.hpp ****     static void wrapper(void* t);
  20:src/../h/syscall_cpp.hpp ****     static int sleep(time_t time);
  21:src/../h/syscall_cpp.hpp **** protected:
  22:src/../h/syscall_cpp.hpp ****     Thread();
  23:src/../h/syscall_cpp.hpp ****     virtual void run () {}
  13              		.loc 1 23 18
  14              		.cfi_startproc
  15              	.LVL0:
  16 0000 130101FF 		addi	sp,sp,-16
  17              		.cfi_def_cfa_offset 16
  18 0004 23348100 		sd	s0,8(sp)
  19              		.cfi_offset 8, -8
  20 0008 13040101 		addi	s0,sp,16
  21              		.cfi_def_cfa 8, 0
  22              		.loc 1 23 26 is_stmt 0
  23 000c 03348100 		ld	s0,8(sp)
  24              		.cfi_restore 8
  25              		.cfi_def_cfa 2, 16
  26 0010 13010101 		addi	sp,sp,16
  27              		.cfi_def_cfa_offset 0
  28 0014 67800000 		jr	ra
  29              		.cfi_endproc
  30              	.LFE27:
  32              		.section	.text._ZN14PeriodicThread18periodicActivationEv,"axG",@progbits,_ZN14PeriodicThread18peri
  33              		.align	2
  34              		.weak	_ZN14PeriodicThread18periodicActivationEv
  36              	_ZN14PeriodicThread18periodicActivationEv:
  37              	.LFB32:
GAS LISTING /tmp/cc0nkMex.s 			page 2


  24:src/../h/syscall_cpp.hpp **** private:
  25:src/../h/syscall_cpp.hpp ****     TCB *myHandle = nullptr;
  26:src/../h/syscall_cpp.hpp ****     void (*body)(void*);
  27:src/../h/syscall_cpp.hpp ****     void *arg;
  28:src/../h/syscall_cpp.hpp **** };
  29:src/../h/syscall_cpp.hpp **** 
  30:src/../h/syscall_cpp.hpp **** 
  31:src/../h/syscall_cpp.hpp **** class Semaphore {
  32:src/../h/syscall_cpp.hpp **** public:
  33:src/../h/syscall_cpp.hpp ****     Semaphore(unsigned init = 1);
  34:src/../h/syscall_cpp.hpp ****     virtual ~Semaphore();
  35:src/../h/syscall_cpp.hpp ****     int wait();
  36:src/../h/syscall_cpp.hpp ****     int signal();
  37:src/../h/syscall_cpp.hpp **** private:
  38:src/../h/syscall_cpp.hpp ****     Sem *myHandle;
  39:src/../h/syscall_cpp.hpp **** };
  40:src/../h/syscall_cpp.hpp **** 
  41:src/../h/syscall_cpp.hpp **** 
  42:src/../h/syscall_cpp.hpp **** class PeriodicThread : public Thread {
  43:src/../h/syscall_cpp.hpp **** public:
  44:src/../h/syscall_cpp.hpp ****     void terminate() { period = 0; }
  45:src/../h/syscall_cpp.hpp **** protected:
  46:src/../h/syscall_cpp.hpp ****     PeriodicThread(time_t p) : Thread(), period(p) {}
  47:src/../h/syscall_cpp.hpp ****     virtual void periodicActivation() {}
  38              		.loc 1 47 18 is_stmt 1
  39              		.cfi_startproc
  40              	.LVL1:
  41 0000 130101FF 		addi	sp,sp,-16
  42              		.cfi_def_cfa_offset 16
  43 0004 23348100 		sd	s0,8(sp)
  44              		.cfi_offset 8, -8
  45 0008 13040101 		addi	s0,sp,16
  46              		.cfi_def_cfa 8, 0
  47              		.loc 1 47 40 is_stmt 0
  48 000c 03348100 		ld	s0,8(sp)
  49              		.cfi_restore 8
  50              		.cfi_def_cfa 2, 16
  51 0010 13010101 		addi	sp,sp,16
  52              		.cfi_def_cfa_offset 0
  53 0014 67800000 		jr	ra
  54              		.cfi_endproc
  55              	.LFE32:
  57              		.text
  58              		.align	2
  59              		.globl	_ZN6Thread7wrapperEPv
  61              	_ZN6Thread7wrapperEPv:
  62              	.LFB43:
  63              		.file 2 "src/syscall_cpp.cpp"
   1:src/syscall_cpp.cpp **** #include "../h/syscall_cpp.hpp"
   2:src/syscall_cpp.cpp **** 
   3:src/syscall_cpp.cpp **** void *operator new(uint64 size){
   4:src/syscall_cpp.cpp ****     return mem_alloc(size);
   5:src/syscall_cpp.cpp **** }
   6:src/syscall_cpp.cpp **** 
   7:src/syscall_cpp.cpp **** void *operator new[](uint64 n) {
   8:src/syscall_cpp.cpp ****     return mem_alloc(n);
   9:src/syscall_cpp.cpp **** }
GAS LISTING /tmp/cc0nkMex.s 			page 3


  10:src/syscall_cpp.cpp **** 
  11:src/syscall_cpp.cpp **** void operator delete(void *adress) noexcept {
  12:src/syscall_cpp.cpp ****     mem_free(adress);
  13:src/syscall_cpp.cpp **** }
  14:src/syscall_cpp.cpp **** 
  15:src/syscall_cpp.cpp **** void operator delete[](void *adress) noexcept {
  16:src/syscall_cpp.cpp ****     mem_free(adress);
  17:src/syscall_cpp.cpp **** }
  18:src/syscall_cpp.cpp **** 
  19:src/syscall_cpp.cpp **** Thread::Thread(void (*body)(void *), void *arg) {
  20:src/syscall_cpp.cpp ****     this->body = body;
  21:src/syscall_cpp.cpp ****     this->arg = arg;
  22:src/syscall_cpp.cpp **** }
  23:src/syscall_cpp.cpp **** 
  24:src/syscall_cpp.cpp **** Thread::Thread() {
  25:src/syscall_cpp.cpp ****     this->body = Thread::wrapper;
  26:src/syscall_cpp.cpp ****     this->arg = this;
  27:src/syscall_cpp.cpp **** }
  28:src/syscall_cpp.cpp **** 
  29:src/syscall_cpp.cpp **** void Thread::wrapper(void *t) {
  64              		.loc 2 29 31 is_stmt 1
  65              		.cfi_startproc
  66              	.LVL2:
  67 0000 130101FF 		addi	sp,sp,-16
  68              		.cfi_def_cfa_offset 16
  69 0004 23341100 		sd	ra,8(sp)
  70 0008 23308100 		sd	s0,0(sp)
  71              		.cfi_offset 1, -8
  72              		.cfi_offset 8, -16
  73 000c 13040101 		addi	s0,sp,16
  74              		.cfi_def_cfa 8, 0
  30:src/syscall_cpp.cpp ****     ((Thread*) t)->run();
  75              		.loc 2 30 5
  76              		.loc 2 30 24 is_stmt 0
  77 0010 83370500 		ld	a5,0(a0)
  78 0014 83B70701 		ld	a5,16(a5)
  79              		.loc 2 30 23
  80 0018 E7800700 		jalr	a5
  81              	.LVL3:
  31:src/syscall_cpp.cpp **** }
  82              		.loc 2 31 1
  83 001c 83308100 		ld	ra,8(sp)
  84              		.cfi_restore 1
  85 0020 03340100 		ld	s0,0(sp)
  86              		.cfi_restore 8
  87              		.cfi_def_cfa 2, 16
  88 0024 13010101 		addi	sp,sp,16
  89              		.cfi_def_cfa_offset 0
  90 0028 67800000 		jr	ra
  91              		.cfi_endproc
  92              	.LFE43:
  94              		.align	2
  95              		.globl	_ZN14PeriodicThread3runEv
  97              	_ZN14PeriodicThread3runEv:
  98              	.LFB61:
  32:src/syscall_cpp.cpp **** 
  33:src/syscall_cpp.cpp **** Thread::~Thread() {
GAS LISTING /tmp/cc0nkMex.s 			page 4


  34:src/syscall_cpp.cpp ****     myHandle->setFinished(true);
  35:src/syscall_cpp.cpp ****     delete myHandle;
  36:src/syscall_cpp.cpp **** }
  37:src/syscall_cpp.cpp **** 
  38:src/syscall_cpp.cpp **** int Thread::start() {
  39:src/syscall_cpp.cpp ****     thread_create(&myHandle , body, arg);
  40:src/syscall_cpp.cpp ****     return 0;
  41:src/syscall_cpp.cpp **** }
  42:src/syscall_cpp.cpp **** 
  43:src/syscall_cpp.cpp **** void Thread::join() {
  44:src/syscall_cpp.cpp ****     thread_join(myHandle);
  45:src/syscall_cpp.cpp **** }
  46:src/syscall_cpp.cpp **** 
  47:src/syscall_cpp.cpp **** void Thread::dispatch() {
  48:src/syscall_cpp.cpp ****     thread_dispatch();
  49:src/syscall_cpp.cpp **** }
  50:src/syscall_cpp.cpp **** 
  51:src/syscall_cpp.cpp **** int Thread::sleep(time_t time) {
  52:src/syscall_cpp.cpp ****     return time_sleep(time);
  53:src/syscall_cpp.cpp **** }
  54:src/syscall_cpp.cpp **** 
  55:src/syscall_cpp.cpp **** 
  56:src/syscall_cpp.cpp **** Semaphore::Semaphore(unsigned int init) {
  57:src/syscall_cpp.cpp ****     sem_open(&myHandle, init);
  58:src/syscall_cpp.cpp **** }
  59:src/syscall_cpp.cpp **** 
  60:src/syscall_cpp.cpp **** Semaphore::~Semaphore() {
  61:src/syscall_cpp.cpp ****     sem_close(myHandle);
  62:src/syscall_cpp.cpp **** }
  63:src/syscall_cpp.cpp **** 
  64:src/syscall_cpp.cpp **** int Semaphore::wait() {
  65:src/syscall_cpp.cpp ****     return sem_wait(myHandle);
  66:src/syscall_cpp.cpp **** }
  67:src/syscall_cpp.cpp **** 
  68:src/syscall_cpp.cpp **** int Semaphore::signal() {
  69:src/syscall_cpp.cpp ****     return sem_signal(myHandle);
  70:src/syscall_cpp.cpp **** }
  71:src/syscall_cpp.cpp **** 
  72:src/syscall_cpp.cpp **** 
  73:src/syscall_cpp.cpp **** void PeriodicThread::run() {
  99              		.loc 2 73 28 is_stmt 1
 100              		.cfi_startproc
 101              	.LVL4:
 102 002c 130101FE 		addi	sp,sp,-32
 103              		.cfi_def_cfa_offset 32
 104 0030 233C1100 		sd	ra,24(sp)
 105 0034 23388100 		sd	s0,16(sp)
 106 0038 23349100 		sd	s1,8(sp)
 107              		.cfi_offset 1, -8
 108              		.cfi_offset 8, -16
 109              		.cfi_offset 9, -24
 110 003c 13040102 		addi	s0,sp,32
 111              		.cfi_def_cfa 8, 0
 112 0040 93040500 		mv	s1,a0
 113              	.LVL5:
 114              	.L9:
  74:src/syscall_cpp.cpp ****     while(period) {
GAS LISTING /tmp/cc0nkMex.s 			page 5


 115              		.loc 2 74 5
 116              		.loc 2 74 11
 117 0044 83B70402 		ld	a5,32(s1)
 118 0048 63820702 		beqz	a5,.L7
  75:src/syscall_cpp.cpp ****         periodicActivation();
 119              		.loc 2 75 9
 120              		.loc 2 75 28 is_stmt 0
 121 004c 83B70400 		ld	a5,0(s1)
 122 0050 83B78701 		ld	a5,24(a5)
 123              		.loc 2 75 27
 124 0054 13850400 		mv	a0,s1
 125 0058 E7800700 		jalr	a5
 126              	.LVL6:
  76:src/syscall_cpp.cpp ****         time_sleep(period);
 127              		.loc 2 76 9 is_stmt 1
 128              		.loc 2 76 19 is_stmt 0
 129 005c 03B50402 		ld	a0,32(s1)
 130 0060 97000000 		call	_Z10time_sleepm@plt
 130      E7800000 
 131              	.LVL7:
  74:src/syscall_cpp.cpp ****     while(period) {
 132              		.loc 2 74 5
 133 0068 6FF0DFFD 		j	.L9
 134              	.L7:
  77:src/syscall_cpp.cpp ****     }
  78:src/syscall_cpp.cpp **** }
 135              		.loc 2 78 1
 136 006c 83308101 		ld	ra,24(sp)
 137              		.cfi_restore 1
 138 0070 03340101 		ld	s0,16(sp)
 139              		.cfi_restore 8
 140              		.cfi_def_cfa 2, 32
 141 0074 83348100 		ld	s1,8(sp)
 142              		.cfi_restore 9
 143              	.LVL8:
 144 0078 13010102 		addi	sp,sp,32
 145              		.cfi_def_cfa_offset 0
 146 007c 67800000 		jr	ra
 147              		.cfi_endproc
 148              	.LFE61:
 150              		.align	2
 151              		.globl	_ZN9SemaphoreD2Ev
 153              	_ZN9SemaphoreD2Ev:
 154              	.LFB56:
  60:src/syscall_cpp.cpp ****     sem_close(myHandle);
 155              		.loc 2 60 1 is_stmt 1
 156              		.cfi_startproc
 157              		.cfi_personality 0x9b,DW.ref.__gxx_personality_v0
 158              		.cfi_lsda 0x1b,.LLSDA56
 159              	.LVL9:
 160 0080 130101FF 		addi	sp,sp,-16
 161              		.cfi_def_cfa_offset 16
 162 0084 23341100 		sd	ra,8(sp)
 163 0088 23308100 		sd	s0,0(sp)
 164              		.cfi_offset 1, -8
 165              		.cfi_offset 8, -16
 166 008c 13040101 		addi	s0,sp,16
GAS LISTING /tmp/cc0nkMex.s 			page 6


 167              		.cfi_def_cfa 8, 0
 168              	.LBB8:
  60:src/syscall_cpp.cpp ****     sem_close(myHandle);
 169              		.loc 2 60 23 is_stmt 0
 170 0090 97070000 		lla	a5,_ZTV9Semaphore+16
 170      93870700 
 171 0098 2330F500 		sd	a5,0(a0)
  61:src/syscall_cpp.cpp **** }
 172              		.loc 2 61 5 is_stmt 1
  61:src/syscall_cpp.cpp **** }
 173              		.loc 2 61 14 is_stmt 0
 174 009c 03358500 		ld	a0,8(a0)
 175              	.LVL10:
 176 00a0 97000000 		call	_Z9sem_closeP3Sem@plt
 176      E7800000 
 177              	.LVL11:
 178              	.LBE8:
  62:src/syscall_cpp.cpp **** 
 179              		.loc 2 62 1
 180 00a8 83308100 		ld	ra,8(sp)
 181              		.cfi_restore 1
 182 00ac 03340100 		ld	s0,0(sp)
 183              		.cfi_restore 8
 184              		.cfi_def_cfa 2, 16
 185 00b0 13010101 		addi	sp,sp,16
 186              		.cfi_def_cfa_offset 0
 187 00b4 67800000 		jr	ra
 188              		.cfi_endproc
 189              	.LFE56:
 190              		.globl	__gxx_personality_v0
 191              		.section	.gcc_except_table,"a",@progbits
 192              	.LLSDA56:
 193 0000 FF       		.byte	0xff
 194 0001 FF       		.byte	0xff
 195 0002 03       		.byte	0x3
 196 0003 00       		.byte	0
 197              		.text
 199              		.globl	_ZN9SemaphoreD1Ev
 200              		.set	_ZN9SemaphoreD1Ev,_ZN9SemaphoreD2Ev
 201              		.align	2
 202              		.globl	_Znwm
 204              	_Znwm:
 205              	.LFB33:
   3:src/syscall_cpp.cpp ****     return mem_alloc(size);
 206              		.loc 2 3 32 is_stmt 1
 207              		.cfi_startproc
 208              	.LVL12:
 209 00b8 130101FF 		addi	sp,sp,-16
 210              		.cfi_def_cfa_offset 16
 211 00bc 23341100 		sd	ra,8(sp)
 212 00c0 23308100 		sd	s0,0(sp)
 213              		.cfi_offset 1, -8
 214              		.cfi_offset 8, -16
 215 00c4 13040101 		addi	s0,sp,16
 216              		.cfi_def_cfa 8, 0
   4:src/syscall_cpp.cpp **** }
 217              		.loc 2 4 5
GAS LISTING /tmp/cc0nkMex.s 			page 7


   4:src/syscall_cpp.cpp **** }
 218              		.loc 2 4 21 is_stmt 0
 219 00c8 97000000 		call	_Z9mem_allocm@plt
 219      E7800000 
 220              	.LVL13:
   5:src/syscall_cpp.cpp **** 
 221              		.loc 2 5 1
 222 00d0 83308100 		ld	ra,8(sp)
 223              		.cfi_restore 1
 224 00d4 03340100 		ld	s0,0(sp)
 225              		.cfi_restore 8
 226              		.cfi_def_cfa 2, 16
 227 00d8 13010101 		addi	sp,sp,16
 228              		.cfi_def_cfa_offset 0
 229 00dc 67800000 		jr	ra
 230              		.cfi_endproc
 231              	.LFE33:
 233              		.align	2
 234              		.globl	_Znam
 236              	_Znam:
 237              	.LFB34:
   7:src/syscall_cpp.cpp ****     return mem_alloc(n);
 238              		.loc 2 7 32 is_stmt 1
 239              		.cfi_startproc
 240              	.LVL14:
 241 00e0 130101FF 		addi	sp,sp,-16
 242              		.cfi_def_cfa_offset 16
 243 00e4 23341100 		sd	ra,8(sp)
 244 00e8 23308100 		sd	s0,0(sp)
 245              		.cfi_offset 1, -8
 246              		.cfi_offset 8, -16
 247 00ec 13040101 		addi	s0,sp,16
 248              		.cfi_def_cfa 8, 0
   8:src/syscall_cpp.cpp **** }
 249              		.loc 2 8 5
   8:src/syscall_cpp.cpp **** }
 250              		.loc 2 8 21 is_stmt 0
 251 00f0 97000000 		call	_Z9mem_allocm@plt
 251      E7800000 
 252              	.LVL15:
   9:src/syscall_cpp.cpp **** 
 253              		.loc 2 9 1
 254 00f8 83308100 		ld	ra,8(sp)
 255              		.cfi_restore 1
 256 00fc 03340100 		ld	s0,0(sp)
 257              		.cfi_restore 8
 258              		.cfi_def_cfa 2, 16
 259 0100 13010101 		addi	sp,sp,16
 260              		.cfi_def_cfa_offset 0
 261 0104 67800000 		jr	ra
 262              		.cfi_endproc
 263              	.LFE34:
 265              		.align	2
 266              		.globl	_ZdlPv
 268              	_ZdlPv:
 269              	.LFB35:
  11:src/syscall_cpp.cpp ****     mem_free(adress);
GAS LISTING /tmp/cc0nkMex.s 			page 8


 270              		.loc 2 11 45 is_stmt 1
 271              		.cfi_startproc
 272              		.cfi_personality 0x9b,DW.ref.__gxx_personality_v0
 273              		.cfi_lsda 0x1b,.LLSDA35
 274              	.LVL16:
 275 0108 130101FF 		addi	sp,sp,-16
 276              		.cfi_def_cfa_offset 16
 277 010c 23341100 		sd	ra,8(sp)
 278 0110 23308100 		sd	s0,0(sp)
 279              		.cfi_offset 1, -8
 280              		.cfi_offset 8, -16
 281 0114 13040101 		addi	s0,sp,16
 282              		.cfi_def_cfa 8, 0
  12:src/syscall_cpp.cpp **** }
 283              		.loc 2 12 5
  12:src/syscall_cpp.cpp **** }
 284              		.loc 2 12 13 is_stmt 0
 285 0118 97000000 		call	_Z8mem_freePv@plt
 285      E7800000 
 286              	.LVL17:
  13:src/syscall_cpp.cpp **** 
 287              		.loc 2 13 1
 288 0120 83308100 		ld	ra,8(sp)
 289              		.cfi_restore 1
 290 0124 03340100 		ld	s0,0(sp)
 291              		.cfi_restore 8
 292              		.cfi_def_cfa 2, 16
 293 0128 13010101 		addi	sp,sp,16
 294              		.cfi_def_cfa_offset 0
 295 012c 67800000 		jr	ra
 296              		.cfi_endproc
 297              	.LFE35:
 298              		.section	.gcc_except_table
 299              	.LLSDA35:
 300 0004 FF       		.byte	0xff
 301 0005 FF       		.byte	0xff
 302 0006 03       		.byte	0x3
 303 0007 00       		.byte	0
 304              		.text
 306              		.align	2
 307              		.globl	_ZN6ThreadD2Ev
 309              	_ZN6ThreadD2Ev:
 310              	.LFB45:
  33:src/syscall_cpp.cpp ****     myHandle->setFinished(true);
 311              		.loc 2 33 1 is_stmt 1
 312              		.cfi_startproc
 313              	.LVL18:
 314 0130 130101FE 		addi	sp,sp,-32
 315              		.cfi_def_cfa_offset 32
 316 0134 233C1100 		sd	ra,24(sp)
 317 0138 23388100 		sd	s0,16(sp)
 318 013c 23349100 		sd	s1,8(sp)
 319              		.cfi_offset 1, -8
 320              		.cfi_offset 8, -16
 321              		.cfi_offset 9, -24
 322 0140 13040102 		addi	s0,sp,32
 323              		.cfi_def_cfa 8, 0
GAS LISTING /tmp/cc0nkMex.s 			page 9


 324              	.LBB9:
  33:src/syscall_cpp.cpp ****     myHandle->setFinished(true);
 325              		.loc 2 33 17 is_stmt 0
 326 0144 97070000 		lla	a5,_ZTV6Thread+16
 326      93870700 
 327 014c 2330F500 		sd	a5,0(a0)
  34:src/syscall_cpp.cpp ****     delete myHandle;
 328              		.loc 2 34 5 is_stmt 1
 329 0150 83378500 		ld	a5,8(a0)
 330              	.LVL19:
 331              	.LBB10:
 332              	.LBB11:
 333              		.file 3 "src/../h/../h/TCB.hpp"
   1:src/../h/../h/TCB.hpp **** #ifndef PROJECT_BASE_TCB_HPP
   2:src/../h/../h/TCB.hpp **** #define PROJECT_BASE_TCB_HPP
   3:src/../h/../h/TCB.hpp **** 
   4:src/../h/../h/TCB.hpp **** #include "../lib/hw.h"
   5:src/../h/../h/TCB.hpp **** #include "../h/Scheduler.hpp"
   6:src/../h/../h/TCB.hpp **** #include "../h/Sleeping.hpp"
   7:src/../h/../h/TCB.hpp **** 
   8:src/../h/../h/TCB.hpp **** class TCB {
   9:src/../h/../h/TCB.hpp **** public:
  10:src/../h/../h/TCB.hpp ****     friend class Sem;
  11:src/../h/../h/TCB.hpp ****     using Body = void (*)(void*);
  12:src/../h/../h/TCB.hpp **** 
  13:src/../h/../h/TCB.hpp ****     static int createThread(TCB **handle, Body body, void *arg, void *stack);
  14:src/../h/../h/TCB.hpp ****     ~TCB();
  15:src/../h/../h/TCB.hpp ****     static void yield();
  16:src/../h/../h/TCB.hpp ****     static void dispatch();
  17:src/../h/../h/TCB.hpp ****     static void join(TCB *handle);
  18:src/../h/../h/TCB.hpp ****     void waitList();
  19:src/../h/../h/TCB.hpp ****     static int sleep(time_t time);
  20:src/../h/../h/TCB.hpp **** 
  21:src/../h/../h/TCB.hpp ****     static TCB *running;
  22:src/../h/../h/TCB.hpp **** 
  23:src/../h/../h/TCB.hpp ****     bool isFinished() const { return finished; }
  24:src/../h/../h/TCB.hpp ****     void setFinished(bool f) { finished = f; }
 334              		.loc 3 24 32
 335              		.loc 3 24 41 is_stmt 0
 336 0154 13071000 		li	a4,1
 337 0158 2384E702 		sb	a4,40(a5)
 338              	.LVL20:
 339              	.LBE11:
 340              	.LBE10:
  35:src/syscall_cpp.cpp **** }
 341              		.loc 2 35 5 is_stmt 1
  35:src/syscall_cpp.cpp **** }
 342              		.loc 2 35 12 is_stmt 0
 343 015c 83348500 		ld	s1,8(a0)
  35:src/syscall_cpp.cpp **** }
 344              		.loc 2 35 20
 345 0160 638E0400 		beqz	s1,.L19
  35:src/syscall_cpp.cpp **** }
 346              		.loc 2 35 12 discriminator 1
 347 0164 13850400 		mv	a0,s1
 348              	.LVL21:
 349 0168 97000000 		call	_ZN3TCBD1Ev@plt
GAS LISTING /tmp/cc0nkMex.s 			page 10


 349      E7800000 
 350              	.LVL22:
 351 0170 13850400 		mv	a0,s1
 352 0174 97000000 		call	_ZdlPv
 352      E7800000 
 353              	.LVL23:
 354              	.L19:
 355              	.LBE9:
  36:src/syscall_cpp.cpp **** 
 356              		.loc 2 36 1
 357 017c 83308101 		ld	ra,24(sp)
 358              		.cfi_restore 1
 359 0180 03340101 		ld	s0,16(sp)
 360              		.cfi_restore 8
 361              		.cfi_def_cfa 2, 32
 362 0184 83348100 		ld	s1,8(sp)
 363              		.cfi_restore 9
 364 0188 13010102 		addi	sp,sp,32
 365              		.cfi_def_cfa_offset 0
 366 018c 67800000 		jr	ra
 367              		.cfi_endproc
 368              	.LFE45:
 370              		.globl	_ZN6ThreadD1Ev
 371              		.set	_ZN6ThreadD1Ev,_ZN6ThreadD2Ev
 372              		.section	.text._ZN14PeriodicThreadD2Ev,"axG",@progbits,_ZN14PeriodicThreadD5Ev,comdat
 373              		.align	2
 374              		.weak	_ZN14PeriodicThreadD2Ev
 376              	_ZN14PeriodicThreadD2Ev:
 377              	.LFB65:
  42:src/../h/syscall_cpp.hpp **** public:
 378              		.loc 1 42 7 is_stmt 1
 379              		.cfi_startproc
 380              	.LVL24:
 381 0000 130101FF 		addi	sp,sp,-16
 382              		.cfi_def_cfa_offset 16
 383 0004 23341100 		sd	ra,8(sp)
 384 0008 23308100 		sd	s0,0(sp)
 385              		.cfi_offset 1, -8
 386              		.cfi_offset 8, -16
 387 000c 13040101 		addi	s0,sp,16
 388              		.cfi_def_cfa 8, 0
 389              	.LBB12:
  42:src/../h/syscall_cpp.hpp **** public:
 390              		.loc 1 42 7 is_stmt 0
 391 0010 97070000 		lla	a5,_ZTV14PeriodicThread+16
 391      93870700 
 392 0018 2330F500 		sd	a5,0(a0)
 393 001c 97000000 		call	_ZN6ThreadD2Ev
 393      E7800000 
 394              	.LVL25:
 395              	.LBE12:
 396 0024 83308100 		ld	ra,8(sp)
 397              		.cfi_restore 1
 398 0028 03340100 		ld	s0,0(sp)
 399              		.cfi_restore 8
 400              		.cfi_def_cfa 2, 16
 401 002c 13010101 		addi	sp,sp,16
GAS LISTING /tmp/cc0nkMex.s 			page 11


 402              		.cfi_def_cfa_offset 0
 403 0030 67800000 		jr	ra
 404              		.cfi_endproc
 405              	.LFE65:
 407              		.weak	_ZN14PeriodicThreadD1Ev
 408              		.set	_ZN14PeriodicThreadD1Ev,_ZN14PeriodicThreadD2Ev
 409              		.text
 410              		.align	2
 411              		.globl	_ZN6ThreadD0Ev
 413              	_ZN6ThreadD0Ev:
 414              	.LFB47:
  33:src/syscall_cpp.cpp ****     myHandle->setFinished(true);
 415              		.loc 2 33 1 is_stmt 1
 416              		.cfi_startproc
 417              	.LVL26:
 418 0190 130101FE 		addi	sp,sp,-32
 419              		.cfi_def_cfa_offset 32
 420 0194 233C1100 		sd	ra,24(sp)
 421 0198 23388100 		sd	s0,16(sp)
 422 019c 23349100 		sd	s1,8(sp)
 423              		.cfi_offset 1, -8
 424              		.cfi_offset 8, -16
 425              		.cfi_offset 9, -24
 426 01a0 13040102 		addi	s0,sp,32
 427              		.cfi_def_cfa 8, 0
 428 01a4 93040500 		mv	s1,a0
  36:src/syscall_cpp.cpp **** 
 429              		.loc 2 36 1 is_stmt 0
 430 01a8 97000000 		call	_ZN6ThreadD1Ev
 430      E7800000 
 431              	.LVL27:
 432 01b0 13850400 		mv	a0,s1
 433 01b4 97000000 		call	_ZdlPv
 433      E7800000 
 434              	.LVL28:
 435 01bc 83308101 		ld	ra,24(sp)
 436              		.cfi_restore 1
 437 01c0 03340101 		ld	s0,16(sp)
 438              		.cfi_restore 8
 439              		.cfi_def_cfa 2, 32
 440 01c4 83348100 		ld	s1,8(sp)
 441              		.cfi_restore 9
 442              	.LVL29:
 443 01c8 13010102 		addi	sp,sp,32
 444              		.cfi_def_cfa_offset 0
 445 01cc 67800000 		jr	ra
 446              		.cfi_endproc
 447              	.LFE47:
 449              		.align	2
 450              		.globl	_ZN9SemaphoreD0Ev
 452              	_ZN9SemaphoreD0Ev:
 453              	.LFB58:
  60:src/syscall_cpp.cpp ****     sem_close(myHandle);
 454              		.loc 2 60 1 is_stmt 1
 455              		.cfi_startproc
 456              	.LVL30:
 457 01d0 130101FE 		addi	sp,sp,-32
GAS LISTING /tmp/cc0nkMex.s 			page 12


 458              		.cfi_def_cfa_offset 32
 459 01d4 233C1100 		sd	ra,24(sp)
 460 01d8 23388100 		sd	s0,16(sp)
 461 01dc 23349100 		sd	s1,8(sp)
 462              		.cfi_offset 1, -8
 463              		.cfi_offset 8, -16
 464              		.cfi_offset 9, -24
 465 01e0 13040102 		addi	s0,sp,32
 466              		.cfi_def_cfa 8, 0
 467 01e4 93040500 		mv	s1,a0
  62:src/syscall_cpp.cpp **** 
 468              		.loc 2 62 1 is_stmt 0
 469 01e8 97000000 		call	_ZN9SemaphoreD1Ev
 469      E7800000 
 470              	.LVL31:
 471 01f0 13850400 		mv	a0,s1
 472 01f4 97000000 		call	_ZdlPv
 472      E7800000 
 473              	.LVL32:
 474 01fc 83308101 		ld	ra,24(sp)
 475              		.cfi_restore 1
 476 0200 03340101 		ld	s0,16(sp)
 477              		.cfi_restore 8
 478              		.cfi_def_cfa 2, 32
 479 0204 83348100 		ld	s1,8(sp)
 480              		.cfi_restore 9
 481              	.LVL33:
 482 0208 13010102 		addi	sp,sp,32
 483              		.cfi_def_cfa_offset 0
 484 020c 67800000 		jr	ra
 485              		.cfi_endproc
 486              	.LFE58:
 488              		.section	.text._ZN14PeriodicThreadD0Ev,"axG",@progbits,_ZN14PeriodicThreadD5Ev,comdat
 489              		.align	2
 490              		.weak	_ZN14PeriodicThreadD0Ev
 492              	_ZN14PeriodicThreadD0Ev:
 493              	.LFB67:
  42:src/../h/syscall_cpp.hpp **** public:
 494              		.loc 1 42 7 is_stmt 1
 495              		.cfi_startproc
 496              	.LVL34:
 497 0000 130101FE 		addi	sp,sp,-32
 498              		.cfi_def_cfa_offset 32
 499 0004 233C1100 		sd	ra,24(sp)
 500 0008 23388100 		sd	s0,16(sp)
 501 000c 23349100 		sd	s1,8(sp)
 502              		.cfi_offset 1, -8
 503              		.cfi_offset 8, -16
 504              		.cfi_offset 9, -24
 505 0010 13040102 		addi	s0,sp,32
 506              		.cfi_def_cfa 8, 0
 507 0014 93040500 		mv	s1,a0
 508              	.LVL35:
 509              	.LBB13:
 510              	.LBB14:
  42:src/../h/syscall_cpp.hpp **** public:
 511              		.loc 1 42 7 is_stmt 0
GAS LISTING /tmp/cc0nkMex.s 			page 13


 512 0018 97070000 		lla	a5,_ZTV14PeriodicThread+16
 512      93870700 
 513 0020 2330F500 		sd	a5,0(a0)
 514 0024 97000000 		call	_ZN6ThreadD2Ev
 514      E7800000 
 515              	.LVL36:
 516              	.LBE14:
 517              	.LBE13:
 518 002c 13850400 		mv	a0,s1
 519 0030 97000000 		call	_ZdlPv
 519      E7800000 
 520              	.LVL37:
 521 0038 83308101 		ld	ra,24(sp)
 522              		.cfi_restore 1
 523 003c 03340101 		ld	s0,16(sp)
 524              		.cfi_restore 8
 525              		.cfi_def_cfa 2, 32
 526 0040 83348100 		ld	s1,8(sp)
 527              		.cfi_restore 9
 528              	.LVL38:
 529 0044 13010102 		addi	sp,sp,32
 530              		.cfi_def_cfa_offset 0
 531 0048 67800000 		jr	ra
 532              		.cfi_endproc
 533              	.LFE67:
 535              		.text
 536              		.align	2
 537              		.globl	_ZdaPv
 539              	_ZdaPv:
 540              	.LFB36:
  15:src/syscall_cpp.cpp ****     mem_free(adress);
 541              		.loc 2 15 47 is_stmt 1
 542              		.cfi_startproc
 543              		.cfi_personality 0x9b,DW.ref.__gxx_personality_v0
 544              		.cfi_lsda 0x1b,.LLSDA36
 545              	.LVL39:
 546 0210 130101FF 		addi	sp,sp,-16
 547              		.cfi_def_cfa_offset 16
 548 0214 23341100 		sd	ra,8(sp)
 549 0218 23308100 		sd	s0,0(sp)
 550              		.cfi_offset 1, -8
 551              		.cfi_offset 8, -16
 552 021c 13040101 		addi	s0,sp,16
 553              		.cfi_def_cfa 8, 0
  16:src/syscall_cpp.cpp **** }
 554              		.loc 2 16 5
  16:src/syscall_cpp.cpp **** }
 555              		.loc 2 16 13 is_stmt 0
 556 0220 97000000 		call	_Z8mem_freePv@plt
 556      E7800000 
 557              	.LVL40:
  17:src/syscall_cpp.cpp **** 
 558              		.loc 2 17 1
 559 0228 83308100 		ld	ra,8(sp)
 560              		.cfi_restore 1
 561 022c 03340100 		ld	s0,0(sp)
 562              		.cfi_restore 8
GAS LISTING /tmp/cc0nkMex.s 			page 14


 563              		.cfi_def_cfa 2, 16
 564 0230 13010101 		addi	sp,sp,16
 565              		.cfi_def_cfa_offset 0
 566 0234 67800000 		jr	ra
 567              		.cfi_endproc
 568              	.LFE36:
 569              		.section	.gcc_except_table
 570              	.LLSDA36:
 571 0008 FF       		.byte	0xff
 572 0009 FF       		.byte	0xff
 573 000a 03       		.byte	0x3
 574 000b 00       		.byte	0
 575              		.text
 577              		.align	2
 578              		.globl	_ZN6ThreadC2EPFvPvES0_
 580              	_ZN6ThreadC2EPFvPvES0_:
 581              	.LFB38:
  19:src/syscall_cpp.cpp ****     this->body = body;
 582              		.loc 2 19 1 is_stmt 1
 583              		.cfi_startproc
 584              	.LVL41:
 585 0238 130101FF 		addi	sp,sp,-16
 586              		.cfi_def_cfa_offset 16
 587 023c 23348100 		sd	s0,8(sp)
 588              		.cfi_offset 8, -8
 589 0240 13040101 		addi	s0,sp,16
 590              		.cfi_def_cfa 8, 0
 591              	.LBB15:
  19:src/syscall_cpp.cpp ****     this->body = body;
 592              		.loc 2 19 47 is_stmt 0
 593 0244 97070000 		lla	a5,_ZTV6Thread+16
 593      93870700 
 594 024c 2330F500 		sd	a5,0(a0)
 595 0250 23340500 		sd	zero,8(a0)
  20:src/syscall_cpp.cpp ****     this->arg = arg;
 596              		.loc 2 20 5 is_stmt 1
  20:src/syscall_cpp.cpp ****     this->arg = arg;
 597              		.loc 2 20 16 is_stmt 0
 598 0254 2338B500 		sd	a1,16(a0)
  21:src/syscall_cpp.cpp **** }
 599              		.loc 2 21 5 is_stmt 1
  21:src/syscall_cpp.cpp **** }
 600              		.loc 2 21 15 is_stmt 0
 601 0258 233CC500 		sd	a2,24(a0)
 602              	.LBE15:
  22:src/syscall_cpp.cpp **** 
 603              		.loc 2 22 1
 604 025c 03348100 		ld	s0,8(sp)
 605              		.cfi_restore 8
 606              		.cfi_def_cfa 2, 16
 607 0260 13010101 		addi	sp,sp,16
 608              		.cfi_def_cfa_offset 0
 609 0264 67800000 		jr	ra
 610              		.cfi_endproc
 611              	.LFE38:
 613              		.globl	_ZN6ThreadC1EPFvPvES0_
 614              		.set	_ZN6ThreadC1EPFvPvES0_,_ZN6ThreadC2EPFvPvES0_
GAS LISTING /tmp/cc0nkMex.s 			page 15


 615              		.align	2
 616              		.globl	_ZN6ThreadC2Ev
 618              	_ZN6ThreadC2Ev:
 619              	.LFB41:
  24:src/syscall_cpp.cpp ****     this->body = Thread::wrapper;
 620              		.loc 2 24 1 is_stmt 1
 621              		.cfi_startproc
 622              	.LVL42:
 623 0268 130101FF 		addi	sp,sp,-16
 624              		.cfi_def_cfa_offset 16
 625 026c 23348100 		sd	s0,8(sp)
 626              		.cfi_offset 8, -8
 627 0270 13040101 		addi	s0,sp,16
 628              		.cfi_def_cfa 8, 0
 629              	.LBB16:
  24:src/syscall_cpp.cpp ****     this->body = Thread::wrapper;
 630              		.loc 2 24 16 is_stmt 0
 631 0274 97070000 		lla	a5,_ZTV6Thread+16
 631      93870700 
 632 027c 2330F500 		sd	a5,0(a0)
 633 0280 23340500 		sd	zero,8(a0)
  25:src/syscall_cpp.cpp ****     this->arg = this;
 634              		.loc 2 25 5 is_stmt 1
  25:src/syscall_cpp.cpp ****     this->arg = this;
 635              		.loc 2 25 16 is_stmt 0
 636 0284 97070000 		lla	a5,_ZN6Thread7wrapperEPv
 636      93870700 
 637 028c 2338F500 		sd	a5,16(a0)
  26:src/syscall_cpp.cpp **** }
 638              		.loc 2 26 5 is_stmt 1
  26:src/syscall_cpp.cpp **** }
 639              		.loc 2 26 15 is_stmt 0
 640 0290 233CA500 		sd	a0,24(a0)
 641              	.LBE16:
  27:src/syscall_cpp.cpp **** 
 642              		.loc 2 27 1
 643 0294 03348100 		ld	s0,8(sp)
 644              		.cfi_restore 8
 645              		.cfi_def_cfa 2, 16
 646 0298 13010101 		addi	sp,sp,16
 647              		.cfi_def_cfa_offset 0
 648 029c 67800000 		jr	ra
 649              		.cfi_endproc
 650              	.LFE41:
 652              		.globl	_ZN6ThreadC1Ev
 653              		.set	_ZN6ThreadC1Ev,_ZN6ThreadC2Ev
 654              		.align	2
 655              		.globl	_ZN6Thread5startEv
 657              	_ZN6Thread5startEv:
 658              	.LFB48:
  38:src/syscall_cpp.cpp ****     thread_create(&myHandle , body, arg);
 659              		.loc 2 38 21 is_stmt 1
 660              		.cfi_startproc
 661              	.LVL43:
 662 02a0 130101FF 		addi	sp,sp,-16
 663              		.cfi_def_cfa_offset 16
 664 02a4 23341100 		sd	ra,8(sp)
GAS LISTING /tmp/cc0nkMex.s 			page 16


 665 02a8 23308100 		sd	s0,0(sp)
 666              		.cfi_offset 1, -8
 667              		.cfi_offset 8, -16
 668 02ac 13040101 		addi	s0,sp,16
 669              		.cfi_def_cfa 8, 0
  39:src/syscall_cpp.cpp ****     return 0;
 670              		.loc 2 39 5
  39:src/syscall_cpp.cpp ****     return 0;
 671              		.loc 2 39 18 is_stmt 0
 672 02b0 03368501 		ld	a2,24(a0)
 673 02b4 83350501 		ld	a1,16(a0)
 674 02b8 13058500 		addi	a0,a0,8
 675              	.LVL44:
 676 02bc 97000000 		call	_Z13thread_createPP3TCBPFvPvES2_@plt
 676      E7800000 
 677              	.LVL45:
  40:src/syscall_cpp.cpp **** }
 678              		.loc 2 40 5 is_stmt 1
  41:src/syscall_cpp.cpp **** 
 679              		.loc 2 41 1 is_stmt 0
 680 02c4 13050000 		li	a0,0
 681 02c8 83308100 		ld	ra,8(sp)
 682              		.cfi_restore 1
 683 02cc 03340100 		ld	s0,0(sp)
 684              		.cfi_restore 8
 685              		.cfi_def_cfa 2, 16
 686 02d0 13010101 		addi	sp,sp,16
 687              		.cfi_def_cfa_offset 0
 688 02d4 67800000 		jr	ra
 689              		.cfi_endproc
 690              	.LFE48:
 692              		.align	2
 693              		.globl	_ZN6Thread4joinEv
 695              	_ZN6Thread4joinEv:
 696              	.LFB49:
  43:src/syscall_cpp.cpp ****     thread_join(myHandle);
 697              		.loc 2 43 21 is_stmt 1
 698              		.cfi_startproc
 699              	.LVL46:
 700 02d8 130101FF 		addi	sp,sp,-16
 701              		.cfi_def_cfa_offset 16
 702 02dc 23341100 		sd	ra,8(sp)
 703 02e0 23308100 		sd	s0,0(sp)
 704              		.cfi_offset 1, -8
 705              		.cfi_offset 8, -16
 706 02e4 13040101 		addi	s0,sp,16
 707              		.cfi_def_cfa 8, 0
  44:src/syscall_cpp.cpp **** }
 708              		.loc 2 44 5
  44:src/syscall_cpp.cpp **** }
 709              		.loc 2 44 16 is_stmt 0
 710 02e8 03358500 		ld	a0,8(a0)
 711              	.LVL47:
 712 02ec 97000000 		call	_Z11thread_joinP3TCB@plt
 712      E7800000 
 713              	.LVL48:
  45:src/syscall_cpp.cpp **** 
GAS LISTING /tmp/cc0nkMex.s 			page 17


 714              		.loc 2 45 1
 715 02f4 83308100 		ld	ra,8(sp)
 716              		.cfi_restore 1
 717 02f8 03340100 		ld	s0,0(sp)
 718              		.cfi_restore 8
 719              		.cfi_def_cfa 2, 16
 720 02fc 13010101 		addi	sp,sp,16
 721              		.cfi_def_cfa_offset 0
 722 0300 67800000 		jr	ra
 723              		.cfi_endproc
 724              	.LFE49:
 726              		.align	2
 727              		.globl	_ZN6Thread8dispatchEv
 729              	_ZN6Thread8dispatchEv:
 730              	.LFB50:
  47:src/syscall_cpp.cpp ****     thread_dispatch();
 731              		.loc 2 47 25 is_stmt 1
 732              		.cfi_startproc
 733 0304 130101FF 		addi	sp,sp,-16
 734              		.cfi_def_cfa_offset 16
 735 0308 23341100 		sd	ra,8(sp)
 736 030c 23308100 		sd	s0,0(sp)
 737              		.cfi_offset 1, -8
 738              		.cfi_offset 8, -16
 739 0310 13040101 		addi	s0,sp,16
 740              		.cfi_def_cfa 8, 0
  48:src/syscall_cpp.cpp **** }
 741              		.loc 2 48 5
  48:src/syscall_cpp.cpp **** }
 742              		.loc 2 48 20 is_stmt 0
 743 0314 97000000 		call	_Z15thread_dispatchv@plt
 743      E7800000 
 744              	.LVL49:
  49:src/syscall_cpp.cpp **** 
 745              		.loc 2 49 1
 746 031c 83308100 		ld	ra,8(sp)
 747              		.cfi_restore 1
 748 0320 03340100 		ld	s0,0(sp)
 749              		.cfi_restore 8
 750              		.cfi_def_cfa 2, 16
 751 0324 13010101 		addi	sp,sp,16
 752              		.cfi_def_cfa_offset 0
 753 0328 67800000 		jr	ra
 754              		.cfi_endproc
 755              	.LFE50:
 757              		.align	2
 758              		.globl	_ZN6Thread5sleepEm
 760              	_ZN6Thread5sleepEm:
 761              	.LFB51:
  51:src/syscall_cpp.cpp ****     return time_sleep(time);
 762              		.loc 2 51 32 is_stmt 1
 763              		.cfi_startproc
 764              	.LVL50:
 765 032c 130101FF 		addi	sp,sp,-16
 766              		.cfi_def_cfa_offset 16
 767 0330 23341100 		sd	ra,8(sp)
 768 0334 23308100 		sd	s0,0(sp)
GAS LISTING /tmp/cc0nkMex.s 			page 18


 769              		.cfi_offset 1, -8
 770              		.cfi_offset 8, -16
 771 0338 13040101 		addi	s0,sp,16
 772              		.cfi_def_cfa 8, 0
  52:src/syscall_cpp.cpp **** }
 773              		.loc 2 52 5
  52:src/syscall_cpp.cpp **** }
 774              		.loc 2 52 22 is_stmt 0
 775 033c 97000000 		call	_Z10time_sleepm@plt
 775      E7800000 
 776              	.LVL51:
  53:src/syscall_cpp.cpp **** 
 777              		.loc 2 53 1
 778 0344 83308100 		ld	ra,8(sp)
 779              		.cfi_restore 1
 780 0348 03340100 		ld	s0,0(sp)
 781              		.cfi_restore 8
 782              		.cfi_def_cfa 2, 16
 783 034c 13010101 		addi	sp,sp,16
 784              		.cfi_def_cfa_offset 0
 785 0350 67800000 		jr	ra
 786              		.cfi_endproc
 787              	.LFE51:
 789              		.align	2
 790              		.globl	_ZN9SemaphoreC2Ej
 792              	_ZN9SemaphoreC2Ej:
 793              	.LFB53:
  56:src/syscall_cpp.cpp ****     sem_open(&myHandle, init);
 794              		.loc 2 56 1 is_stmt 1
 795              		.cfi_startproc
 796              	.LVL52:
 797 0354 130101FF 		addi	sp,sp,-16
 798              		.cfi_def_cfa_offset 16
 799 0358 23341100 		sd	ra,8(sp)
 800 035c 23308100 		sd	s0,0(sp)
 801              		.cfi_offset 1, -8
 802              		.cfi_offset 8, -16
 803 0360 13040101 		addi	s0,sp,16
 804              		.cfi_def_cfa 8, 0
 805              	.LBB17:
  56:src/syscall_cpp.cpp ****     sem_open(&myHandle, init);
 806              		.loc 2 56 39 is_stmt 0
 807 0364 97070000 		lla	a5,_ZTV9Semaphore+16
 807      93870700 
 808 036c 2330F500 		sd	a5,0(a0)
  57:src/syscall_cpp.cpp **** }
 809              		.loc 2 57 5 is_stmt 1
  57:src/syscall_cpp.cpp **** }
 810              		.loc 2 57 13 is_stmt 0
 811 0370 13058500 		addi	a0,a0,8
 812              	.LVL53:
 813 0374 97000000 		call	_Z8sem_openPP3Semj@plt
 813      E7800000 
 814              	.LVL54:
 815              	.LBE17:
  58:src/syscall_cpp.cpp **** 
 816              		.loc 2 58 1
GAS LISTING /tmp/cc0nkMex.s 			page 19


 817 037c 83308100 		ld	ra,8(sp)
 818              		.cfi_restore 1
 819 0380 03340100 		ld	s0,0(sp)
 820              		.cfi_restore 8
 821              		.cfi_def_cfa 2, 16
 822 0384 13010101 		addi	sp,sp,16
 823              		.cfi_def_cfa_offset 0
 824 0388 67800000 		jr	ra
 825              		.cfi_endproc
 826              	.LFE53:
 828              		.globl	_ZN9SemaphoreC1Ej
 829              		.set	_ZN9SemaphoreC1Ej,_ZN9SemaphoreC2Ej
 830              		.align	2
 831              		.globl	_ZN9Semaphore4waitEv
 833              	_ZN9Semaphore4waitEv:
 834              	.LFB59:
  64:src/syscall_cpp.cpp ****     return sem_wait(myHandle);
 835              		.loc 2 64 23 is_stmt 1
 836              		.cfi_startproc
 837              	.LVL55:
 838 038c 130101FF 		addi	sp,sp,-16
 839              		.cfi_def_cfa_offset 16
 840 0390 23341100 		sd	ra,8(sp)
 841 0394 23308100 		sd	s0,0(sp)
 842              		.cfi_offset 1, -8
 843              		.cfi_offset 8, -16
 844 0398 13040101 		addi	s0,sp,16
 845              		.cfi_def_cfa 8, 0
  65:src/syscall_cpp.cpp **** }
 846              		.loc 2 65 5
  65:src/syscall_cpp.cpp **** }
 847              		.loc 2 65 20 is_stmt 0
 848 039c 03358500 		ld	a0,8(a0)
 849              	.LVL56:
 850 03a0 97000000 		call	_Z8sem_waitP3Sem@plt
 850      E7800000 
 851              	.LVL57:
  66:src/syscall_cpp.cpp **** 
 852              		.loc 2 66 1
 853 03a8 83308100 		ld	ra,8(sp)
 854              		.cfi_restore 1
 855 03ac 03340100 		ld	s0,0(sp)
 856              		.cfi_restore 8
 857              		.cfi_def_cfa 2, 16
 858 03b0 13010101 		addi	sp,sp,16
 859              		.cfi_def_cfa_offset 0
 860 03b4 67800000 		jr	ra
 861              		.cfi_endproc
 862              	.LFE59:
 864              		.align	2
 865              		.globl	_ZN9Semaphore6signalEv
 867              	_ZN9Semaphore6signalEv:
 868              	.LFB60:
  68:src/syscall_cpp.cpp ****     return sem_signal(myHandle);
 869              		.loc 2 68 25 is_stmt 1
 870              		.cfi_startproc
 871              	.LVL58:
GAS LISTING /tmp/cc0nkMex.s 			page 20


 872 03b8 130101FF 		addi	sp,sp,-16
 873              		.cfi_def_cfa_offset 16
 874 03bc 23341100 		sd	ra,8(sp)
 875 03c0 23308100 		sd	s0,0(sp)
 876              		.cfi_offset 1, -8
 877              		.cfi_offset 8, -16
 878 03c4 13040101 		addi	s0,sp,16
 879              		.cfi_def_cfa 8, 0
  69:src/syscall_cpp.cpp **** }
 880              		.loc 2 69 5
  69:src/syscall_cpp.cpp **** }
 881              		.loc 2 69 22 is_stmt 0
 882 03c8 03358500 		ld	a0,8(a0)
 883              	.LVL59:
 884 03cc 97000000 		call	_Z10sem_signalP3Sem@plt
 884      E7800000 
 885              	.LVL60:
  70:src/syscall_cpp.cpp **** 
 886              		.loc 2 70 1
 887 03d4 83308100 		ld	ra,8(sp)
 888              		.cfi_restore 1
 889 03d8 03340100 		ld	s0,0(sp)
 890              		.cfi_restore 8
 891              		.cfi_def_cfa 2, 16
 892 03dc 13010101 		addi	sp,sp,16
 893              		.cfi_def_cfa_offset 0
 894 03e0 67800000 		jr	ra
 895              		.cfi_endproc
 896              	.LFE60:
 898              		.align	2
 899              		.globl	_ZN7Console4getcEv
 901              	_ZN7Console4getcEv:
 902              	.LFB62:
  79:src/syscall_cpp.cpp **** 
  80:src/syscall_cpp.cpp **** char Console::getc() {
 903              		.loc 2 80 22 is_stmt 1
 904              		.cfi_startproc
 905 03e4 130101FF 		addi	sp,sp,-16
 906              		.cfi_def_cfa_offset 16
 907 03e8 23341100 		sd	ra,8(sp)
 908 03ec 23308100 		sd	s0,0(sp)
 909              		.cfi_offset 1, -8
 910              		.cfi_offset 8, -16
 911 03f0 13040101 		addi	s0,sp,16
 912              		.cfi_def_cfa 8, 0
  81:src/syscall_cpp.cpp ****     return ::getc();
 913              		.loc 2 81 5
 914              		.loc 2 81 18 is_stmt 0
 915 03f4 97000000 		call	_Z4getcv@plt
 915      E7800000 
 916              	.LVL61:
  82:src/syscall_cpp.cpp **** }
 917              		.loc 2 82 1
 918 03fc 83308100 		ld	ra,8(sp)
 919              		.cfi_restore 1
 920 0400 03340100 		ld	s0,0(sp)
 921              		.cfi_restore 8
GAS LISTING /tmp/cc0nkMex.s 			page 21


 922              		.cfi_def_cfa 2, 16
 923 0404 13010101 		addi	sp,sp,16
 924              		.cfi_def_cfa_offset 0
 925 0408 67800000 		jr	ra
 926              		.cfi_endproc
 927              	.LFE62:
 929              		.align	2
 930              		.globl	_ZN7Console4putcEc
 932              	_ZN7Console4putcEc:
 933              	.LFB63:
  83:src/syscall_cpp.cpp **** 
  84:src/syscall_cpp.cpp **** void Console::putc(char c) {
 934              		.loc 2 84 28 is_stmt 1
 935              		.cfi_startproc
 936              	.LVL62:
 937 040c 130101FF 		addi	sp,sp,-16
 938              		.cfi_def_cfa_offset 16
 939 0410 23341100 		sd	ra,8(sp)
 940 0414 23308100 		sd	s0,0(sp)
 941              		.cfi_offset 1, -8
 942              		.cfi_offset 8, -16
 943 0418 13040101 		addi	s0,sp,16
 944              		.cfi_def_cfa 8, 0
  85:src/syscall_cpp.cpp ****     ::putc(c);
 945              		.loc 2 85 5
 946              		.loc 2 85 11 is_stmt 0
 947 041c 97000000 		call	_Z4putcc@plt
 947      E7800000 
 948              	.LVL63:
  86:src/syscall_cpp.cpp **** }
 949              		.loc 2 86 1
 950 0424 83308100 		ld	ra,8(sp)
 951              		.cfi_restore 1
 952 0428 03340100 		ld	s0,0(sp)
 953              		.cfi_restore 8
 954              		.cfi_def_cfa 2, 16
 955 042c 13010101 		addi	sp,sp,16
 956              		.cfi_def_cfa_offset 0
 957 0430 67800000 		jr	ra
 958              		.cfi_endproc
 959              	.LFE63:
 961              		.weak	_ZTV6Thread
 962              		.section	.data.rel.ro.local._ZTV6Thread,"awG",@progbits,_ZTV6Thread,comdat
 963              		.align	3
 966              	_ZTV6Thread:
 967 0000 00000000 		.dword	0
 967      00000000 
 968 0008 00000000 		.dword	0
 968      00000000 
 969 0010 00000000 		.dword	_ZN6ThreadD1Ev
 969      00000000 
 970 0018 00000000 		.dword	_ZN6ThreadD0Ev
 970      00000000 
 971 0020 00000000 		.dword	_ZN6Thread3runEv
 971      00000000 
 972              		.weak	_ZTV9Semaphore
 973              		.section	.data.rel.ro.local._ZTV9Semaphore,"awG",@progbits,_ZTV9Semaphore,comdat
GAS LISTING /tmp/cc0nkMex.s 			page 22


 974              		.align	3
 977              	_ZTV9Semaphore:
 978 0000 00000000 		.dword	0
 978      00000000 
 979 0008 00000000 		.dword	0
 979      00000000 
 980 0010 00000000 		.dword	_ZN9SemaphoreD1Ev
 980      00000000 
 981 0018 00000000 		.dword	_ZN9SemaphoreD0Ev
 981      00000000 
 982              		.weak	_ZTV14PeriodicThread
 983              		.section	.data.rel.ro.local._ZTV14PeriodicThread,"awG",@progbits,_ZTV14PeriodicThread,comdat
 984              		.align	3
 987              	_ZTV14PeriodicThread:
 988 0000 00000000 		.dword	0
 988      00000000 
 989 0008 00000000 		.dword	0
 989      00000000 
 990 0010 00000000 		.dword	_ZN14PeriodicThreadD1Ev
 990      00000000 
 991 0018 00000000 		.dword	_ZN14PeriodicThreadD0Ev
 991      00000000 
 992 0020 00000000 		.dword	_ZN14PeriodicThread3runEv
 992      00000000 
 993 0028 00000000 		.dword	_ZN14PeriodicThread18periodicActivationEv
 993      00000000 
 994              		.text
 995              	.Letext0:
 996              		.file 4 "src/../h/../lib/hw.h"
 997              		.file 5 "src/../h/../h/Blocked.hpp"
 998              		.file 6 "src/../h/../h/Sem.hpp"
 999              		.file 7 "src/../h/syscall_c.hpp"
 4974              		.align	3
 4977              	DW.ref.__gxx_personality_v0:
 4978 0000 00000000 		.dword	__gxx_personality_v0
 4978      00000000 
 4979              		.ident	"GCC: (Ubuntu 9.4.0-1ubuntu1~20.04) 9.4.0"
 4980              		.section	.note.GNU-stack,"",@progbits
GAS LISTING /tmp/cc0nkMex.s 			page 23


DEFINED SYMBOLS
                            *ABS*:0000000000000000 syscall_cpp.cpp
     /tmp/cc0nkMex.s:10     .text._ZN6Thread3runEv:0000000000000000 _ZN6Thread3runEv
     /tmp/cc0nkMex.s:14     .text._ZN6Thread3runEv:0000000000000000 .L0 
     /tmp/cc0nkMex.s:16     .text._ZN6Thread3runEv:0000000000000000 .L0 
     /tmp/cc0nkMex.s:17     .text._ZN6Thread3runEv:0000000000000004 .L0 
     /tmp/cc0nkMex.s:19     .text._ZN6Thread3runEv:0000000000000008 .L0 
     /tmp/cc0nkMex.s:21     .text._ZN6Thread3runEv:000000000000000c .L0 
     /tmp/cc0nkMex.s:23     .text._ZN6Thread3runEv:000000000000000c .L0 
     /tmp/cc0nkMex.s:24     .text._ZN6Thread3runEv:0000000000000010 .L0 
     /tmp/cc0nkMex.s:25     .text._ZN6Thread3runEv:0000000000000010 .L0 
     /tmp/cc0nkMex.s:27     .text._ZN6Thread3runEv:0000000000000014 .L0 
     /tmp/cc0nkMex.s:29     .text._ZN6Thread3runEv:0000000000000018 .L0 
     /tmp/cc0nkMex.s:36     .text._ZN14PeriodicThread18periodicActivationEv:0000000000000000 _ZN14PeriodicThread18periodicActivationEv
     /tmp/cc0nkMex.s:39     .text._ZN14PeriodicThread18periodicActivationEv:0000000000000000 .L0 
     /tmp/cc0nkMex.s:41     .text._ZN14PeriodicThread18periodicActivationEv:0000000000000000 .L0 
     /tmp/cc0nkMex.s:42     .text._ZN14PeriodicThread18periodicActivationEv:0000000000000004 .L0 
     /tmp/cc0nkMex.s:44     .text._ZN14PeriodicThread18periodicActivationEv:0000000000000008 .L0 
     /tmp/cc0nkMex.s:46     .text._ZN14PeriodicThread18periodicActivationEv:000000000000000c .L0 
     /tmp/cc0nkMex.s:48     .text._ZN14PeriodicThread18periodicActivationEv:000000000000000c .L0 
     /tmp/cc0nkMex.s:49     .text._ZN14PeriodicThread18periodicActivationEv:0000000000000010 .L0 
     /tmp/cc0nkMex.s:50     .text._ZN14PeriodicThread18periodicActivationEv:0000000000000010 .L0 
     /tmp/cc0nkMex.s:52     .text._ZN14PeriodicThread18periodicActivationEv:0000000000000014 .L0 
     /tmp/cc0nkMex.s:54     .text._ZN14PeriodicThread18periodicActivationEv:0000000000000018 .L0 
     /tmp/cc0nkMex.s:61     .text:0000000000000000 _ZN6Thread7wrapperEPv
     /tmp/cc0nkMex.s:65     .text:0000000000000000 .L0 
     /tmp/cc0nkMex.s:67     .text:0000000000000000 .L0 
     /tmp/cc0nkMex.s:68     .text:0000000000000004 .L0 
     /tmp/cc0nkMex.s:71     .text:000000000000000c .L0 
     /tmp/cc0nkMex.s:72     .text:000000000000000c .L0 
     /tmp/cc0nkMex.s:74     .text:0000000000000010 .L0 
     /tmp/cc0nkMex.s:76     .text:0000000000000010 .L0 
     /tmp/cc0nkMex.s:77     .text:0000000000000010 .L0 
     /tmp/cc0nkMex.s:80     .text:0000000000000018 .L0 
     /tmp/cc0nkMex.s:83     .text:000000000000001c .L0 
     /tmp/cc0nkMex.s:84     .text:0000000000000020 .L0 
     /tmp/cc0nkMex.s:86     .text:0000000000000024 .L0 
     /tmp/cc0nkMex.s:87     .text:0000000000000024 .L0 
     /tmp/cc0nkMex.s:89     .text:0000000000000028 .L0 
     /tmp/cc0nkMex.s:91     .text:000000000000002c .L0 
     /tmp/cc0nkMex.s:97     .text:000000000000002c _ZN14PeriodicThread3runEv
     /tmp/cc0nkMex.s:100    .text:000000000000002c .L0 
     /tmp/cc0nkMex.s:102    .text:000000000000002c .L0 
     /tmp/cc0nkMex.s:103    .text:0000000000000030 .L0 
     /tmp/cc0nkMex.s:107    .text:000000000000003c .L0 
     /tmp/cc0nkMex.s:108    .text:000000000000003c .L0 
     /tmp/cc0nkMex.s:109    .text:000000000000003c .L0 
     /tmp/cc0nkMex.s:111    .text:0000000000000040 .L0 
     /tmp/cc0nkMex.s:116    .text:0000000000000044 .L0 
     /tmp/cc0nkMex.s:117    .text:0000000000000044 .L0 
     /tmp/cc0nkMex.s:120    .text:000000000000004c .L0 
     /tmp/cc0nkMex.s:121    .text:000000000000004c .L0 
     /tmp/cc0nkMex.s:124    .text:0000000000000054 .L0 
     /tmp/cc0nkMex.s:128    .text:000000000000005c .L0 
     /tmp/cc0nkMex.s:129    .text:000000000000005c .L0 
     /tmp/cc0nkMex.s:133    .text:0000000000000068 .L0 
     /tmp/cc0nkMex.s:136    .text:000000000000006c .L0 
GAS LISTING /tmp/cc0nkMex.s 			page 24


     /tmp/cc0nkMex.s:137    .text:0000000000000070 .L0 
     /tmp/cc0nkMex.s:139    .text:0000000000000074 .L0 
     /tmp/cc0nkMex.s:140    .text:0000000000000074 .L0 
     /tmp/cc0nkMex.s:142    .text:0000000000000078 .L0 
     /tmp/cc0nkMex.s:145    .text:000000000000007c .L0 
     /tmp/cc0nkMex.s:147    .text:0000000000000080 .L0 
     /tmp/cc0nkMex.s:153    .text:0000000000000080 _ZN9SemaphoreD2Ev
     /tmp/cc0nkMex.s:156    .text:0000000000000080 .L0 
     /tmp/cc0nkMex.s:4977   .data.rel.local.DW.ref.__gxx_personality_v0:0000000000000000 DW.ref.__gxx_personality_v0
     /tmp/cc0nkMex.s:160    .text:0000000000000080 .L0 
     /tmp/cc0nkMex.s:161    .text:0000000000000084 .L0 
     /tmp/cc0nkMex.s:164    .text:000000000000008c .L0 
     /tmp/cc0nkMex.s:165    .text:000000000000008c .L0 
     /tmp/cc0nkMex.s:167    .text:0000000000000090 .L0 
     /tmp/cc0nkMex.s:977    .data.rel.ro.local._ZTV9Semaphore:0000000000000000 _ZTV9Semaphore
     /tmp/cc0nkMex.s:170    .text:0000000000000090 .L0 
     /tmp/cc0nkMex.s:173    .text:000000000000009c .L0 
     /tmp/cc0nkMex.s:174    .text:000000000000009c .L0 
     /tmp/cc0nkMex.s:180    .text:00000000000000a8 .L0 
     /tmp/cc0nkMex.s:181    .text:00000000000000ac .L0 
     /tmp/cc0nkMex.s:183    .text:00000000000000b0 .L0 
     /tmp/cc0nkMex.s:184    .text:00000000000000b0 .L0 
     /tmp/cc0nkMex.s:186    .text:00000000000000b4 .L0 
     /tmp/cc0nkMex.s:188    .text:00000000000000b8 .L0 
     /tmp/cc0nkMex.s:153    .text:0000000000000080 _ZN9SemaphoreD1Ev
     /tmp/cc0nkMex.s:204    .text:00000000000000b8 _Znwm
     /tmp/cc0nkMex.s:207    .text:00000000000000b8 .L0 
     /tmp/cc0nkMex.s:209    .text:00000000000000b8 .L0 
     /tmp/cc0nkMex.s:210    .text:00000000000000bc .L0 
     /tmp/cc0nkMex.s:213    .text:00000000000000c4 .L0 
     /tmp/cc0nkMex.s:214    .text:00000000000000c4 .L0 
     /tmp/cc0nkMex.s:216    .text:00000000000000c8 .L0 
     /tmp/cc0nkMex.s:218    .text:00000000000000c8 .L0 
     /tmp/cc0nkMex.s:219    .text:00000000000000c8 .L0 
     /tmp/cc0nkMex.s:222    .text:00000000000000d0 .L0 
     /tmp/cc0nkMex.s:223    .text:00000000000000d4 .L0 
     /tmp/cc0nkMex.s:225    .text:00000000000000d8 .L0 
     /tmp/cc0nkMex.s:226    .text:00000000000000d8 .L0 
     /tmp/cc0nkMex.s:228    .text:00000000000000dc .L0 
     /tmp/cc0nkMex.s:230    .text:00000000000000e0 .L0 
     /tmp/cc0nkMex.s:236    .text:00000000000000e0 _Znam
     /tmp/cc0nkMex.s:239    .text:00000000000000e0 .L0 
     /tmp/cc0nkMex.s:241    .text:00000000000000e0 .L0 
     /tmp/cc0nkMex.s:242    .text:00000000000000e4 .L0 
     /tmp/cc0nkMex.s:245    .text:00000000000000ec .L0 
     /tmp/cc0nkMex.s:246    .text:00000000000000ec .L0 
     /tmp/cc0nkMex.s:248    .text:00000000000000f0 .L0 
     /tmp/cc0nkMex.s:250    .text:00000000000000f0 .L0 
     /tmp/cc0nkMex.s:251    .text:00000000000000f0 .L0 
     /tmp/cc0nkMex.s:254    .text:00000000000000f8 .L0 
     /tmp/cc0nkMex.s:255    .text:00000000000000fc .L0 
     /tmp/cc0nkMex.s:257    .text:0000000000000100 .L0 
     /tmp/cc0nkMex.s:258    .text:0000000000000100 .L0 
     /tmp/cc0nkMex.s:260    .text:0000000000000104 .L0 
     /tmp/cc0nkMex.s:262    .text:0000000000000108 .L0 
     /tmp/cc0nkMex.s:268    .text:0000000000000108 _ZdlPv
     /tmp/cc0nkMex.s:271    .text:0000000000000108 .L0 
GAS LISTING /tmp/cc0nkMex.s 			page 25


     /tmp/cc0nkMex.s:275    .text:0000000000000108 .L0 
     /tmp/cc0nkMex.s:276    .text:000000000000010c .L0 
     /tmp/cc0nkMex.s:279    .text:0000000000000114 .L0 
     /tmp/cc0nkMex.s:280    .text:0000000000000114 .L0 
     /tmp/cc0nkMex.s:282    .text:0000000000000118 .L0 
     /tmp/cc0nkMex.s:284    .text:0000000000000118 .L0 
     /tmp/cc0nkMex.s:285    .text:0000000000000118 .L0 
     /tmp/cc0nkMex.s:288    .text:0000000000000120 .L0 
     /tmp/cc0nkMex.s:289    .text:0000000000000124 .L0 
     /tmp/cc0nkMex.s:291    .text:0000000000000128 .L0 
     /tmp/cc0nkMex.s:292    .text:0000000000000128 .L0 
     /tmp/cc0nkMex.s:294    .text:000000000000012c .L0 
     /tmp/cc0nkMex.s:296    .text:0000000000000130 .L0 
     /tmp/cc0nkMex.s:309    .text:0000000000000130 _ZN6ThreadD2Ev
     /tmp/cc0nkMex.s:312    .text:0000000000000130 .L0 
     /tmp/cc0nkMex.s:314    .text:0000000000000130 .L0 
     /tmp/cc0nkMex.s:315    .text:0000000000000134 .L0 
     /tmp/cc0nkMex.s:319    .text:0000000000000140 .L0 
     /tmp/cc0nkMex.s:320    .text:0000000000000140 .L0 
     /tmp/cc0nkMex.s:321    .text:0000000000000140 .L0 
     /tmp/cc0nkMex.s:323    .text:0000000000000144 .L0 
     /tmp/cc0nkMex.s:966    .data.rel.ro.local._ZTV6Thread:0000000000000000 _ZTV6Thread
     /tmp/cc0nkMex.s:326    .text:0000000000000144 .L0 
     /tmp/cc0nkMex.s:329    .text:0000000000000150 .L0 
     /tmp/cc0nkMex.s:335    .text:0000000000000154 .L0 
     /tmp/cc0nkMex.s:336    .text:0000000000000154 .L0 
     /tmp/cc0nkMex.s:342    .text:000000000000015c .L0 
     /tmp/cc0nkMex.s:343    .text:000000000000015c .L0 
     /tmp/cc0nkMex.s:345    .text:0000000000000160 .L0 
     /tmp/cc0nkMex.s:347    .text:0000000000000164 .L0 
     /tmp/cc0nkMex.s:357    .text:000000000000017c .L0 
     /tmp/cc0nkMex.s:358    .text:0000000000000180 .L0 
     /tmp/cc0nkMex.s:360    .text:0000000000000184 .L0 
     /tmp/cc0nkMex.s:361    .text:0000000000000184 .L0 
     /tmp/cc0nkMex.s:363    .text:0000000000000188 .L0 
     /tmp/cc0nkMex.s:365    .text:000000000000018c .L0 
     /tmp/cc0nkMex.s:367    .text:0000000000000190 .L0 
     /tmp/cc0nkMex.s:309    .text:0000000000000130 _ZN6ThreadD1Ev
     /tmp/cc0nkMex.s:376    .text._ZN14PeriodicThreadD2Ev:0000000000000000 _ZN14PeriodicThreadD2Ev
     /tmp/cc0nkMex.s:379    .text._ZN14PeriodicThreadD2Ev:0000000000000000 .L0 
     /tmp/cc0nkMex.s:381    .text._ZN14PeriodicThreadD2Ev:0000000000000000 .L0 
     /tmp/cc0nkMex.s:382    .text._ZN14PeriodicThreadD2Ev:0000000000000004 .L0 
     /tmp/cc0nkMex.s:385    .text._ZN14PeriodicThreadD2Ev:000000000000000c .L0 
     /tmp/cc0nkMex.s:386    .text._ZN14PeriodicThreadD2Ev:000000000000000c .L0 
     /tmp/cc0nkMex.s:388    .text._ZN14PeriodicThreadD2Ev:0000000000000010 .L0 
     /tmp/cc0nkMex.s:987    .data.rel.ro.local._ZTV14PeriodicThread:0000000000000000 _ZTV14PeriodicThread
     /tmp/cc0nkMex.s:391    .text._ZN14PeriodicThreadD2Ev:0000000000000010 .L0 
     /tmp/cc0nkMex.s:397    .text._ZN14PeriodicThreadD2Ev:0000000000000028 .L0 
     /tmp/cc0nkMex.s:399    .text._ZN14PeriodicThreadD2Ev:000000000000002c .L0 
     /tmp/cc0nkMex.s:400    .text._ZN14PeriodicThreadD2Ev:000000000000002c .L0 
     /tmp/cc0nkMex.s:402    .text._ZN14PeriodicThreadD2Ev:0000000000000030 .L0 
     /tmp/cc0nkMex.s:404    .text._ZN14PeriodicThreadD2Ev:0000000000000034 .L0 
     /tmp/cc0nkMex.s:376    .text._ZN14PeriodicThreadD2Ev:0000000000000000 _ZN14PeriodicThreadD1Ev
     /tmp/cc0nkMex.s:413    .text:0000000000000190 _ZN6ThreadD0Ev
     /tmp/cc0nkMex.s:416    .text:0000000000000190 .L0 
     /tmp/cc0nkMex.s:418    .text:0000000000000190 .L0 
     /tmp/cc0nkMex.s:419    .text:0000000000000194 .L0 
GAS LISTING /tmp/cc0nkMex.s 			page 26


     /tmp/cc0nkMex.s:423    .text:00000000000001a0 .L0 
     /tmp/cc0nkMex.s:424    .text:00000000000001a0 .L0 
     /tmp/cc0nkMex.s:425    .text:00000000000001a0 .L0 
     /tmp/cc0nkMex.s:427    .text:00000000000001a4 .L0 
     /tmp/cc0nkMex.s:430    .text:00000000000001a8 .L0 
     /tmp/cc0nkMex.s:436    .text:00000000000001c0 .L0 
     /tmp/cc0nkMex.s:438    .text:00000000000001c4 .L0 
     /tmp/cc0nkMex.s:439    .text:00000000000001c4 .L0 
     /tmp/cc0nkMex.s:441    .text:00000000000001c8 .L0 
     /tmp/cc0nkMex.s:444    .text:00000000000001cc .L0 
     /tmp/cc0nkMex.s:446    .text:00000000000001d0 .L0 
     /tmp/cc0nkMex.s:452    .text:00000000000001d0 _ZN9SemaphoreD0Ev
     /tmp/cc0nkMex.s:455    .text:00000000000001d0 .L0 
     /tmp/cc0nkMex.s:457    .text:00000000000001d0 .L0 
     /tmp/cc0nkMex.s:458    .text:00000000000001d4 .L0 
     /tmp/cc0nkMex.s:462    .text:00000000000001e0 .L0 
     /tmp/cc0nkMex.s:463    .text:00000000000001e0 .L0 
     /tmp/cc0nkMex.s:464    .text:00000000000001e0 .L0 
     /tmp/cc0nkMex.s:466    .text:00000000000001e4 .L0 
     /tmp/cc0nkMex.s:469    .text:00000000000001e8 .L0 
     /tmp/cc0nkMex.s:475    .text:0000000000000200 .L0 
     /tmp/cc0nkMex.s:477    .text:0000000000000204 .L0 
     /tmp/cc0nkMex.s:478    .text:0000000000000204 .L0 
     /tmp/cc0nkMex.s:480    .text:0000000000000208 .L0 
     /tmp/cc0nkMex.s:483    .text:000000000000020c .L0 
     /tmp/cc0nkMex.s:485    .text:0000000000000210 .L0 
     /tmp/cc0nkMex.s:492    .text._ZN14PeriodicThreadD0Ev:0000000000000000 _ZN14PeriodicThreadD0Ev
     /tmp/cc0nkMex.s:495    .text._ZN14PeriodicThreadD0Ev:0000000000000000 .L0 
     /tmp/cc0nkMex.s:497    .text._ZN14PeriodicThreadD0Ev:0000000000000000 .L0 
     /tmp/cc0nkMex.s:498    .text._ZN14PeriodicThreadD0Ev:0000000000000004 .L0 
     /tmp/cc0nkMex.s:502    .text._ZN14PeriodicThreadD0Ev:0000000000000010 .L0 
     /tmp/cc0nkMex.s:503    .text._ZN14PeriodicThreadD0Ev:0000000000000010 .L0 
     /tmp/cc0nkMex.s:504    .text._ZN14PeriodicThreadD0Ev:0000000000000010 .L0 
     /tmp/cc0nkMex.s:506    .text._ZN14PeriodicThreadD0Ev:0000000000000014 .L0 
     /tmp/cc0nkMex.s:512    .text._ZN14PeriodicThreadD0Ev:0000000000000018 .L0 
     /tmp/cc0nkMex.s:522    .text._ZN14PeriodicThreadD0Ev:000000000000003c .L0 
     /tmp/cc0nkMex.s:524    .text._ZN14PeriodicThreadD0Ev:0000000000000040 .L0 
     /tmp/cc0nkMex.s:525    .text._ZN14PeriodicThreadD0Ev:0000000000000040 .L0 
     /tmp/cc0nkMex.s:527    .text._ZN14PeriodicThreadD0Ev:0000000000000044 .L0 
     /tmp/cc0nkMex.s:530    .text._ZN14PeriodicThreadD0Ev:0000000000000048 .L0 
     /tmp/cc0nkMex.s:532    .text._ZN14PeriodicThreadD0Ev:000000000000004c .L0 
     /tmp/cc0nkMex.s:539    .text:0000000000000210 _ZdaPv
     /tmp/cc0nkMex.s:542    .text:0000000000000210 .L0 
     /tmp/cc0nkMex.s:546    .text:0000000000000210 .L0 
     /tmp/cc0nkMex.s:547    .text:0000000000000214 .L0 
     /tmp/cc0nkMex.s:550    .text:000000000000021c .L0 
     /tmp/cc0nkMex.s:551    .text:000000000000021c .L0 
     /tmp/cc0nkMex.s:553    .text:0000000000000220 .L0 
     /tmp/cc0nkMex.s:555    .text:0000000000000220 .L0 
     /tmp/cc0nkMex.s:556    .text:0000000000000220 .L0 
     /tmp/cc0nkMex.s:559    .text:0000000000000228 .L0 
     /tmp/cc0nkMex.s:560    .text:000000000000022c .L0 
     /tmp/cc0nkMex.s:562    .text:0000000000000230 .L0 
     /tmp/cc0nkMex.s:563    .text:0000000000000230 .L0 
     /tmp/cc0nkMex.s:565    .text:0000000000000234 .L0 
     /tmp/cc0nkMex.s:567    .text:0000000000000238 .L0 
     /tmp/cc0nkMex.s:580    .text:0000000000000238 _ZN6ThreadC2EPFvPvES0_
GAS LISTING /tmp/cc0nkMex.s 			page 27


     /tmp/cc0nkMex.s:583    .text:0000000000000238 .L0 
     /tmp/cc0nkMex.s:585    .text:0000000000000238 .L0 
     /tmp/cc0nkMex.s:586    .text:000000000000023c .L0 
     /tmp/cc0nkMex.s:588    .text:0000000000000240 .L0 
     /tmp/cc0nkMex.s:590    .text:0000000000000244 .L0 
     /tmp/cc0nkMex.s:593    .text:0000000000000244 .L0 
     /tmp/cc0nkMex.s:597    .text:0000000000000254 .L0 
     /tmp/cc0nkMex.s:598    .text:0000000000000254 .L0 
     /tmp/cc0nkMex.s:600    .text:0000000000000258 .L0 
     /tmp/cc0nkMex.s:601    .text:0000000000000258 .L0 
     /tmp/cc0nkMex.s:604    .text:000000000000025c .L0 
     /tmp/cc0nkMex.s:605    .text:0000000000000260 .L0 
     /tmp/cc0nkMex.s:606    .text:0000000000000260 .L0 
     /tmp/cc0nkMex.s:608    .text:0000000000000264 .L0 
     /tmp/cc0nkMex.s:610    .text:0000000000000268 .L0 
     /tmp/cc0nkMex.s:580    .text:0000000000000238 _ZN6ThreadC1EPFvPvES0_
     /tmp/cc0nkMex.s:618    .text:0000000000000268 _ZN6ThreadC2Ev
     /tmp/cc0nkMex.s:621    .text:0000000000000268 .L0 
     /tmp/cc0nkMex.s:623    .text:0000000000000268 .L0 
     /tmp/cc0nkMex.s:624    .text:000000000000026c .L0 
     /tmp/cc0nkMex.s:626    .text:0000000000000270 .L0 
     /tmp/cc0nkMex.s:628    .text:0000000000000274 .L0 
     /tmp/cc0nkMex.s:631    .text:0000000000000274 .L0 
     /tmp/cc0nkMex.s:635    .text:0000000000000284 .L0 
     /tmp/cc0nkMex.s:636    .text:0000000000000284 .L0 
     /tmp/cc0nkMex.s:639    .text:0000000000000290 .L0 
     /tmp/cc0nkMex.s:640    .text:0000000000000290 .L0 
     /tmp/cc0nkMex.s:643    .text:0000000000000294 .L0 
     /tmp/cc0nkMex.s:644    .text:0000000000000298 .L0 
     /tmp/cc0nkMex.s:645    .text:0000000000000298 .L0 
     /tmp/cc0nkMex.s:647    .text:000000000000029c .L0 
     /tmp/cc0nkMex.s:649    .text:00000000000002a0 .L0 
     /tmp/cc0nkMex.s:618    .text:0000000000000268 _ZN6ThreadC1Ev
     /tmp/cc0nkMex.s:657    .text:00000000000002a0 _ZN6Thread5startEv
     /tmp/cc0nkMex.s:660    .text:00000000000002a0 .L0 
     /tmp/cc0nkMex.s:662    .text:00000000000002a0 .L0 
     /tmp/cc0nkMex.s:663    .text:00000000000002a4 .L0 
     /tmp/cc0nkMex.s:666    .text:00000000000002ac .L0 
     /tmp/cc0nkMex.s:667    .text:00000000000002ac .L0 
     /tmp/cc0nkMex.s:669    .text:00000000000002b0 .L0 
     /tmp/cc0nkMex.s:671    .text:00000000000002b0 .L0 
     /tmp/cc0nkMex.s:672    .text:00000000000002b0 .L0 
     /tmp/cc0nkMex.s:679    .text:00000000000002c4 .L0 
     /tmp/cc0nkMex.s:680    .text:00000000000002c4 .L0 
     /tmp/cc0nkMex.s:682    .text:00000000000002cc .L0 
     /tmp/cc0nkMex.s:684    .text:00000000000002d0 .L0 
     /tmp/cc0nkMex.s:685    .text:00000000000002d0 .L0 
     /tmp/cc0nkMex.s:687    .text:00000000000002d4 .L0 
     /tmp/cc0nkMex.s:689    .text:00000000000002d8 .L0 
     /tmp/cc0nkMex.s:695    .text:00000000000002d8 _ZN6Thread4joinEv
     /tmp/cc0nkMex.s:698    .text:00000000000002d8 .L0 
     /tmp/cc0nkMex.s:700    .text:00000000000002d8 .L0 
     /tmp/cc0nkMex.s:701    .text:00000000000002dc .L0 
     /tmp/cc0nkMex.s:704    .text:00000000000002e4 .L0 
     /tmp/cc0nkMex.s:705    .text:00000000000002e4 .L0 
     /tmp/cc0nkMex.s:707    .text:00000000000002e8 .L0 
     /tmp/cc0nkMex.s:709    .text:00000000000002e8 .L0 
GAS LISTING /tmp/cc0nkMex.s 			page 28


     /tmp/cc0nkMex.s:710    .text:00000000000002e8 .L0 
     /tmp/cc0nkMex.s:715    .text:00000000000002f4 .L0 
     /tmp/cc0nkMex.s:716    .text:00000000000002f8 .L0 
     /tmp/cc0nkMex.s:718    .text:00000000000002fc .L0 
     /tmp/cc0nkMex.s:719    .text:00000000000002fc .L0 
     /tmp/cc0nkMex.s:721    .text:0000000000000300 .L0 
     /tmp/cc0nkMex.s:723    .text:0000000000000304 .L0 
     /tmp/cc0nkMex.s:729    .text:0000000000000304 _ZN6Thread8dispatchEv
     /tmp/cc0nkMex.s:732    .text:0000000000000304 .L0 
     /tmp/cc0nkMex.s:733    .text:0000000000000304 .L0 
     /tmp/cc0nkMex.s:734    .text:0000000000000308 .L0 
     /tmp/cc0nkMex.s:737    .text:0000000000000310 .L0 
     /tmp/cc0nkMex.s:738    .text:0000000000000310 .L0 
     /tmp/cc0nkMex.s:740    .text:0000000000000314 .L0 
     /tmp/cc0nkMex.s:742    .text:0000000000000314 .L0 
     /tmp/cc0nkMex.s:743    .text:0000000000000314 .L0 
     /tmp/cc0nkMex.s:746    .text:000000000000031c .L0 
     /tmp/cc0nkMex.s:747    .text:0000000000000320 .L0 
     /tmp/cc0nkMex.s:749    .text:0000000000000324 .L0 
     /tmp/cc0nkMex.s:750    .text:0000000000000324 .L0 
     /tmp/cc0nkMex.s:752    .text:0000000000000328 .L0 
     /tmp/cc0nkMex.s:754    .text:000000000000032c .L0 
     /tmp/cc0nkMex.s:760    .text:000000000000032c _ZN6Thread5sleepEm
     /tmp/cc0nkMex.s:763    .text:000000000000032c .L0 
     /tmp/cc0nkMex.s:765    .text:000000000000032c .L0 
     /tmp/cc0nkMex.s:766    .text:0000000000000330 .L0 
     /tmp/cc0nkMex.s:769    .text:0000000000000338 .L0 
     /tmp/cc0nkMex.s:770    .text:0000000000000338 .L0 
     /tmp/cc0nkMex.s:772    .text:000000000000033c .L0 
     /tmp/cc0nkMex.s:774    .text:000000000000033c .L0 
     /tmp/cc0nkMex.s:775    .text:000000000000033c .L0 
     /tmp/cc0nkMex.s:778    .text:0000000000000344 .L0 
     /tmp/cc0nkMex.s:779    .text:0000000000000348 .L0 
     /tmp/cc0nkMex.s:781    .text:000000000000034c .L0 
     /tmp/cc0nkMex.s:782    .text:000000000000034c .L0 
     /tmp/cc0nkMex.s:784    .text:0000000000000350 .L0 
     /tmp/cc0nkMex.s:786    .text:0000000000000354 .L0 
     /tmp/cc0nkMex.s:792    .text:0000000000000354 _ZN9SemaphoreC2Ej
     /tmp/cc0nkMex.s:795    .text:0000000000000354 .L0 
     /tmp/cc0nkMex.s:797    .text:0000000000000354 .L0 
     /tmp/cc0nkMex.s:798    .text:0000000000000358 .L0 
     /tmp/cc0nkMex.s:801    .text:0000000000000360 .L0 
     /tmp/cc0nkMex.s:802    .text:0000000000000360 .L0 
     /tmp/cc0nkMex.s:804    .text:0000000000000364 .L0 
     /tmp/cc0nkMex.s:807    .text:0000000000000364 .L0 
     /tmp/cc0nkMex.s:810    .text:0000000000000370 .L0 
     /tmp/cc0nkMex.s:811    .text:0000000000000370 .L0 
     /tmp/cc0nkMex.s:817    .text:000000000000037c .L0 
     /tmp/cc0nkMex.s:818    .text:0000000000000380 .L0 
     /tmp/cc0nkMex.s:820    .text:0000000000000384 .L0 
     /tmp/cc0nkMex.s:821    .text:0000000000000384 .L0 
     /tmp/cc0nkMex.s:823    .text:0000000000000388 .L0 
     /tmp/cc0nkMex.s:825    .text:000000000000038c .L0 
     /tmp/cc0nkMex.s:792    .text:0000000000000354 _ZN9SemaphoreC1Ej
     /tmp/cc0nkMex.s:833    .text:000000000000038c _ZN9Semaphore4waitEv
     /tmp/cc0nkMex.s:836    .text:000000000000038c .L0 
     /tmp/cc0nkMex.s:838    .text:000000000000038c .L0 
GAS LISTING /tmp/cc0nkMex.s 			page 29


     /tmp/cc0nkMex.s:839    .text:0000000000000390 .L0 
     /tmp/cc0nkMex.s:842    .text:0000000000000398 .L0 
     /tmp/cc0nkMex.s:843    .text:0000000000000398 .L0 
     /tmp/cc0nkMex.s:845    .text:000000000000039c .L0 
     /tmp/cc0nkMex.s:847    .text:000000000000039c .L0 
     /tmp/cc0nkMex.s:848    .text:000000000000039c .L0 
     /tmp/cc0nkMex.s:853    .text:00000000000003a8 .L0 
     /tmp/cc0nkMex.s:854    .text:00000000000003ac .L0 
     /tmp/cc0nkMex.s:856    .text:00000000000003b0 .L0 
     /tmp/cc0nkMex.s:857    .text:00000000000003b0 .L0 
     /tmp/cc0nkMex.s:859    .text:00000000000003b4 .L0 
     /tmp/cc0nkMex.s:861    .text:00000000000003b8 .L0 
     /tmp/cc0nkMex.s:867    .text:00000000000003b8 _ZN9Semaphore6signalEv
     /tmp/cc0nkMex.s:870    .text:00000000000003b8 .L0 
     /tmp/cc0nkMex.s:872    .text:00000000000003b8 .L0 
     /tmp/cc0nkMex.s:873    .text:00000000000003bc .L0 
     /tmp/cc0nkMex.s:876    .text:00000000000003c4 .L0 
     /tmp/cc0nkMex.s:877    .text:00000000000003c4 .L0 
     /tmp/cc0nkMex.s:879    .text:00000000000003c8 .L0 
     /tmp/cc0nkMex.s:881    .text:00000000000003c8 .L0 
     /tmp/cc0nkMex.s:882    .text:00000000000003c8 .L0 
     /tmp/cc0nkMex.s:887    .text:00000000000003d4 .L0 
     /tmp/cc0nkMex.s:888    .text:00000000000003d8 .L0 
     /tmp/cc0nkMex.s:890    .text:00000000000003dc .L0 
     /tmp/cc0nkMex.s:891    .text:00000000000003dc .L0 
     /tmp/cc0nkMex.s:893    .text:00000000000003e0 .L0 
     /tmp/cc0nkMex.s:895    .text:00000000000003e4 .L0 
     /tmp/cc0nkMex.s:901    .text:00000000000003e4 _ZN7Console4getcEv
     /tmp/cc0nkMex.s:904    .text:00000000000003e4 .L0 
     /tmp/cc0nkMex.s:905    .text:00000000000003e4 .L0 
     /tmp/cc0nkMex.s:906    .text:00000000000003e8 .L0 
     /tmp/cc0nkMex.s:909    .text:00000000000003f0 .L0 
     /tmp/cc0nkMex.s:910    .text:00000000000003f0 .L0 
     /tmp/cc0nkMex.s:912    .text:00000000000003f4 .L0 
     /tmp/cc0nkMex.s:914    .text:00000000000003f4 .L0 
     /tmp/cc0nkMex.s:915    .text:00000000000003f4 .L0 
     /tmp/cc0nkMex.s:918    .text:00000000000003fc .L0 
     /tmp/cc0nkMex.s:919    .text:0000000000000400 .L0 
     /tmp/cc0nkMex.s:921    .text:0000000000000404 .L0 
     /tmp/cc0nkMex.s:922    .text:0000000000000404 .L0 
     /tmp/cc0nkMex.s:924    .text:0000000000000408 .L0 
     /tmp/cc0nkMex.s:926    .text:000000000000040c .L0 
     /tmp/cc0nkMex.s:932    .text:000000000000040c _ZN7Console4putcEc
     /tmp/cc0nkMex.s:935    .text:000000000000040c .L0 
     /tmp/cc0nkMex.s:937    .text:000000000000040c .L0 
     /tmp/cc0nkMex.s:938    .text:0000000000000410 .L0 
     /tmp/cc0nkMex.s:941    .text:0000000000000418 .L0 
     /tmp/cc0nkMex.s:942    .text:0000000000000418 .L0 
     /tmp/cc0nkMex.s:944    .text:000000000000041c .L0 
     /tmp/cc0nkMex.s:946    .text:000000000000041c .L0 
     /tmp/cc0nkMex.s:947    .text:000000000000041c .L0 
     /tmp/cc0nkMex.s:950    .text:0000000000000424 .L0 
     /tmp/cc0nkMex.s:951    .text:0000000000000428 .L0 
     /tmp/cc0nkMex.s:953    .text:000000000000042c .L0 
     /tmp/cc0nkMex.s:954    .text:000000000000042c .L0 
     /tmp/cc0nkMex.s:956    .text:0000000000000430 .L0 
     /tmp/cc0nkMex.s:958    .text:0000000000000434 .L0 
GAS LISTING /tmp/cc0nkMex.s 			page 30


     /tmp/cc0nkMex.s:32     .text._ZN6Thread3runEv:0000000000000018 .L0 
     /tmp/cc0nkMex.s:57     .text._ZN14PeriodicThread18periodicActivationEv:0000000000000018 .L0 
     /tmp/cc0nkMex.s:1000   .text:0000000000000434 .L0 
     /tmp/cc0nkMex.s:409    .text._ZN14PeriodicThreadD2Ev:0000000000000034 .L0 
     /tmp/cc0nkMex.s:535    .text._ZN14PeriodicThreadD0Ev:000000000000004c .L0 
     /tmp/cc0nkMex.s:170    .text:0000000000000090 .L0 
     /tmp/cc0nkMex.s:326    .text:0000000000000144 .L0 
     /tmp/cc0nkMex.s:593    .text:0000000000000244 .L0 
     /tmp/cc0nkMex.s:631    .text:0000000000000274 .L0 
     /tmp/cc0nkMex.s:636    .text:0000000000000284 .L0 
     /tmp/cc0nkMex.s:807    .text:0000000000000364 .L0 
     /tmp/cc0nkMex.s:134    .text:000000000000006c .L7
     /tmp/cc0nkMex.s:114    .text:0000000000000044 .L9
     /tmp/cc0nkMex.s:354    .text:000000000000017c .L19
     /tmp/cc0nkMex.s:391    .text._ZN14PeriodicThreadD2Ev:0000000000000010 .L0 
     /tmp/cc0nkMex.s:512    .text._ZN14PeriodicThreadD0Ev:0000000000000018 .L0 
     /tmp/cc0nkMex.s:2978   .debug_abbrev:0000000000000000 .Ldebug_abbrev0
     /tmp/cc0nkMex.s:4911   .debug_str:00000000000008dd .LASF176
     /tmp/cc0nkMex.s:4739   .debug_str:0000000000000407 .LASF177
     /tmp/cc0nkMex.s:4705   .debug_str:000000000000030a .LASF178
     /tmp/cc0nkMex.s:4583   .debug_ranges:0000000000000000 .Ldebug_ranges0
     /tmp/cc0nkMex.s:4597   .debug_line:0000000000000000 .Ldebug_line0
     /tmp/cc0nkMex.s:4731   .debug_str:00000000000003d4 .LASF0
     /tmp/cc0nkMex.s:4755   .debug_str:000000000000048c .LASF1
     /tmp/cc0nkMex.s:4843   .debug_str:000000000000071c .LASF2
     /tmp/cc0nkMex.s:4855   .debug_str:000000000000077b .LASF4
     /tmp/cc0nkMex.s:4741   .debug_str:000000000000041b .LASF3
     /tmp/cc0nkMex.s:4615   .debug_str:0000000000000088 .LASF5
     /tmp/cc0nkMex.s:4819   .debug_str:0000000000000668 .LASF6
     /tmp/cc0nkMex.s:4809   .debug_str:000000000000061f .LASF7
     /tmp/cc0nkMex.s:4749   .debug_str:0000000000000457 .LASF8
     /tmp/cc0nkMex.s:4701   .debug_str:00000000000002d9 .LASF9
     /tmp/cc0nkMex.s:4713   .debug_str:0000000000000373 .LASF10
     /tmp/cc0nkMex.s:4653   .debug_str:000000000000017d .LASF11
     /tmp/cc0nkMex.s:4695   .debug_str:00000000000002b4 .LASF12
     /tmp/cc0nkMex.s:4667   .debug_str:00000000000001ec .LASF13
     /tmp/cc0nkMex.s:4651   .debug_str:000000000000016d .LASF14
     /tmp/cc0nkMex.s:4881   .debug_str:0000000000000838 .LASF15
     /tmp/cc0nkMex.s:4683   .debug_str:000000000000025a .LASF16
     /tmp/cc0nkMex.s:4873   .debug_str:00000000000007fc .LASF17
     /tmp/cc0nkMex.s:4767   .debug_str:00000000000004ee .LASF18
     /tmp/cc0nkMex.s:4891   .debug_str:0000000000000866 .LASF70
     /tmp/cc0nkMex.s:4929   .debug_str:0000000000000a1e .LASF71
     /tmp/cc0nkMex.s:4839   .debug_str:0000000000000705 .LASF19
     /tmp/cc0nkMex.s:4655   .debug_str:000000000000018c .LASF20
     /tmp/cc0nkMex.s:4915   .debug_str:00000000000009b4 .LASF72
     /tmp/cc0nkMex.s:4879   .debug_str:000000000000082b .LASF21
     /tmp/cc0nkMex.s:4779   .debug_str:0000000000000536 .LASF23
     /tmp/cc0nkMex.s:4801   .debug_str:00000000000005e8 .LASF179
     /tmp/cc0nkMex.s:4857   .debug_str:0000000000000782 .LASF22
     /tmp/cc0nkMex.s:4611   .debug_str:0000000000000072 .LASF24
     /tmp/cc0nkMex.s:4757   .debug_str:000000000000049f .LASF25
     /tmp/cc0nkMex.s:4841   .debug_str:000000000000070c .LASF27
     /tmp/cc0nkMex.s:4677   .debug_str:0000000000000239 .LASF26
     /tmp/cc0nkMex.s:4663   .debug_str:00000000000001c7 .LASF28
     /tmp/cc0nkMex.s:4903   .debug_str:00000000000008a5 .LASF64
     /tmp/cc0nkMex.s:4697   .debug_str:00000000000002c3 .LASF91
GAS LISTING /tmp/cc0nkMex.s 			page 31


     /tmp/cc0nkMex.s:4885   .debug_str:000000000000084d .LASF29
     /tmp/cc0nkMex.s:4961   .debug_str:0000000000000ada .LASF30
     /tmp/cc0nkMex.s:4629   .debug_str:00000000000000ea .LASF31
     /tmp/cc0nkMex.s:4851   .debug_str:0000000000000755 .LASF32
     /tmp/cc0nkMex.s:4909   .debug_str:00000000000008d5 .LASF51
     /tmp/cc0nkMex.s:4893   .debug_str:000000000000086e .LASF35
     /tmp/cc0nkMex.s:4785   .debug_str:0000000000000572 .LASF37
     /tmp/cc0nkMex.s:4637   .debug_str:0000000000000112 .LASF33
     /tmp/cc0nkMex.s:4927   .debug_str:0000000000000a07 .LASF34
     /tmp/cc0nkMex.s:4715   .debug_str:0000000000000381 .LASF36
     /tmp/cc0nkMex.s:4807   .debug_str:000000000000060b .LASF38
     /tmp/cc0nkMex.s:4623   .debug_str:00000000000000cd .LASF39
     /tmp/cc0nkMex.s:4765   .debug_str:00000000000004da .LASF40
     /tmp/cc0nkMex.s:4847   .debug_str:0000000000000739 .LASF41
     /tmp/cc0nkMex.s:4645   .debug_str:0000000000000142 .LASF42
     /tmp/cc0nkMex.s:4895   .debug_str:0000000000000879 .LASF43
     /tmp/cc0nkMex.s:4691   .debug_str:0000000000000298 .LASF44
     /tmp/cc0nkMex.s:4783   .debug_str:0000000000000567 .LASF45
     /tmp/cc0nkMex.s:4673   .debug_str:000000000000021a .LASF46
     /tmp/cc0nkMex.s:4923   .debug_str:00000000000009f3 .LASF47
     /tmp/cc0nkMex.s:4793   .debug_str:00000000000005b2 .LASF48
     /tmp/cc0nkMex.s:4759   .debug_str:00000000000004a5 .LASF49
     /tmp/cc0nkMex.s:4935   .debug_str:0000000000000a40 .LASF50
     /tmp/cc0nkMex.s:4863   .debug_str:00000000000007b3 .LASF52
     /tmp/cc0nkMex.s:4745   .debug_str:0000000000000436 .LASF53
     /tmp/cc0nkMex.s:4605   .debug_str:000000000000004a .LASF54
     /tmp/cc0nkMex.s:4955   .debug_str:0000000000000ab1 .LASF55
     /tmp/cc0nkMex.s:4925   .debug_str:00000000000009ff .LASF56
     /tmp/cc0nkMex.s:4871   .debug_str:00000000000007f3 .LASF57
     /tmp/cc0nkMex.s:4919   .debug_str:00000000000009e2 .LASF58
     /tmp/cc0nkMex.s:4799   .debug_str:00000000000005e0 .LASF59
     /tmp/cc0nkMex.s:4889   .debug_str:000000000000085d .LASF60
     /tmp/cc0nkMex.s:4921   .debug_str:00000000000009e9 .LASF61
     /tmp/cc0nkMex.s:4687   .debug_str:0000000000000279 .LASF62
     /tmp/cc0nkMex.s:4627   .debug_str:00000000000000dd .LASF63
     /tmp/cc0nkMex.s:4821   .debug_str:000000000000066f .LASF76
     /tmp/cc0nkMex.s:4641   .debug_str:0000000000000128 .LASF65
     /tmp/cc0nkMex.s:4761   .debug_str:00000000000004b2 .LASF67
     /tmp/cc0nkMex.s:4723   .debug_str:00000000000003aa .LASF66
     /tmp/cc0nkMex.s:4631   .debug_str:00000000000000f0 .LASF68
     /tmp/cc0nkMex.s:4775   .debug_str:000000000000051e .LASF69
     /tmp/cc0nkMex.s:4751   .debug_str:000000000000046a .LASF73
     /tmp/cc0nkMex.s:4875   .debug_str:0000000000000812 .LASF74
     /tmp/cc0nkMex.s:4787   .debug_str:0000000000000589 .LASF75
     /tmp/cc0nkMex.s:4849   .debug_str:0000000000000743 .LASF180
     /tmp/cc0nkMex.s:4835   .debug_str:00000000000006e2 .LASF77
     /tmp/cc0nkMex.s:4633   .debug_str:0000000000000106 .LASF78
     /tmp/cc0nkMex.s:4811   .debug_str:0000000000000632 .LASF79
     /tmp/cc0nkMex.s:4643   .debug_str:0000000000000136 .LASF181
     /tmp/cc0nkMex.s:4675   .debug_str:0000000000000231 .LASF80
     /tmp/cc0nkMex.s:4853   .debug_str:0000000000000765 .LASF81
     /tmp/cc0nkMex.s:4743   .debug_str:000000000000042d .LASF82
     /tmp/cc0nkMex.s:4603   .debug_str:0000000000000035 .LASF83
     /tmp/cc0nkMex.s:4805   .debug_str:0000000000000603 .LASF84
     /tmp/cc0nkMex.s:4823   .debug_str:0000000000000686 .LASF85
     /tmp/cc0nkMex.s:4639   .debug_str:000000000000011e .LASF86
     /tmp/cc0nkMex.s:4827   .debug_str:00000000000006a9 .LASF87
GAS LISTING /tmp/cc0nkMex.s 			page 32


     /tmp/cc0nkMex.s:4729   .debug_str:00000000000003ce .LASF88
     /tmp/cc0nkMex.s:4689   .debug_str:0000000000000288 .LASF89
     /tmp/cc0nkMex.s:4953   .debug_str:0000000000000aa9 .LASF90
     /tmp/cc0nkMex.s:4859   .debug_str:0000000000000787 .LASF92
     /tmp/cc0nkMex.s:4897   .debug_str:0000000000000884 .LASF93
     /tmp/cc0nkMex.s:4771   .debug_str:0000000000000505 .LASF94
     /tmp/cc0nkMex.s:4735   .debug_str:00000000000003f3 .LASF155
     /tmp/cc0nkMex.s:4671   .debug_str:0000000000000207 .LASF182
     /tmp/cc0nkMex.s:4943   .debug_str:0000000000000a71 .LASF95
     /tmp/cc0nkMex.s:4681   .debug_str:0000000000000247 .LASF96
     /tmp/cc0nkMex.s:4661   .debug_str:00000000000001b8 .LASF99
     /tmp/cc0nkMex.s:4899   .debug_str:0000000000000889 .LASF97
     /tmp/cc0nkMex.s:4707   .debug_str:0000000000000328 .LASF98
     /tmp/cc0nkMex.s:4747   .debug_str:000000000000043f .LASF100
     /tmp/cc0nkMex.s:4711   .debug_str:0000000000000360 .LASF101
     /tmp/cc0nkMex.s:4599   .debug_str:0000000000000000 .LASF183
     /tmp/cc0nkMex.s:4861   .debug_str:0000000000000799 .LASF114
     /tmp/cc0nkMex.s:4635   .debug_str:000000000000010b .LASF102
     /tmp/cc0nkMex.s:4795   .debug_str:00000000000005c9 .LASF103
     /tmp/cc0nkMex.s:4709   .debug_str:0000000000000348 .LASF184
     /tmp/cc0nkMex.s:4721   .debug_str:00000000000003a3 .LASF104
     /tmp/cc0nkMex.s:4665   .debug_str:00000000000001da .LASF118
     /tmp/cc0nkMex.s:4837   .debug_str:00000000000006f8 .LASF120
     /tmp/cc0nkMex.s:4967   .debug_str:0000000000000b03 .LASF105
     /tmp/cc0nkMex.s:4869   .debug_str:00000000000007eb .LASF123
     /tmp/cc0nkMex.s:4647   .debug_str:0000000000000157 .LASF125
     /tmp/cc0nkMex.s:4951   .debug_str:0000000000000aa3 .LASF106
     /tmp/cc0nkMex.s:4609   .debug_str:000000000000005f .LASF107
     /tmp/cc0nkMex.s:4769   .debug_str:00000000000004f3 .LASF108
     /tmp/cc0nkMex.s:4803   .debug_str:00000000000005ed .LASF109
     /tmp/cc0nkMex.s:4937   .debug_str:0000000000000a59 .LASF110
     /tmp/cc0nkMex.s:4907   .debug_str:00000000000008bf .LASF111
     /tmp/cc0nkMex.s:4913   .debug_str:00000000000009a1 .LASF112
     /tmp/cc0nkMex.s:4737   .debug_str:00000000000003f8 .LASF113
     /tmp/cc0nkMex.s:4947   .debug_str:0000000000000a84 .LASF115
     /tmp/cc0nkMex.s:4685   .debug_str:0000000000000270 .LASF116
     /tmp/cc0nkMex.s:4931   .debug_str:0000000000000a23 .LASF117
     /tmp/cc0nkMex.s:4905   .debug_str:00000000000008aa .LASF119
     /tmp/cc0nkMex.s:4957   .debug_str:0000000000000ab7 .LASF121
     /tmp/cc0nkMex.s:4901   .debug_str:0000000000000893 .LASF122
     /tmp/cc0nkMex.s:4601   .debug_str:000000000000002a .LASF124
     /tmp/cc0nkMex.s:4865   .debug_str:00000000000007c4 .LASF126
     /tmp/cc0nkMex.s:4679   .debug_str:0000000000000242 .LASF127
     /tmp/cc0nkMex.s:4659   .debug_str:00000000000001a3 .LASF128
     /tmp/cc0nkMex.s:4887   .debug_str:0000000000000856 .LASF129
     /tmp/cc0nkMex.s:4617   .debug_str:000000000000008f .LASF130
     /tmp/cc0nkMex.s:4727   .debug_str:00000000000003be .LASF185
     /tmp/cc0nkMex.s:4699   .debug_str:00000000000002d4 .LASF131
     /tmp/cc0nkMex.s:4613   .debug_str:000000000000007e .LASF132
     /tmp/cc0nkMex.s:4969   .debug_str:0000000000000b1a .LASF133
     /tmp/cc0nkMex.s:493    .text._ZN14PeriodicThreadD0Ev:0000000000000000 .LFB67
     /tmp/cc0nkMex.s:533    .text._ZN14PeriodicThreadD0Ev:000000000000004c .LFE67
     /tmp/cc0nkMex.s:4228   .debug_loc:0000000000000000 .LLST12
     /tmp/cc0nkMex.s:509    .text._ZN14PeriodicThreadD0Ev:0000000000000018 .LBB13
     /tmp/cc0nkMex.s:517    .text._ZN14PeriodicThreadD0Ev:000000000000002c .LBE13
     /tmp/cc0nkMex.s:4246   .debug_loc:000000000000004c .LLST13
     /tmp/cc0nkMex.s:515    .text._ZN14PeriodicThreadD0Ev:000000000000002c .LVL36
GAS LISTING /tmp/cc0nkMex.s 			page 33


     /tmp/cc0nkMex.s:520    .text._ZN14PeriodicThreadD0Ev:0000000000000038 .LVL37
     /tmp/cc0nkMex.s:4789   .debug_str:000000000000058e .LASF134
     /tmp/cc0nkMex.s:377    .text._ZN14PeriodicThreadD2Ev:0000000000000000 .LFB65
     /tmp/cc0nkMex.s:405    .text._ZN14PeriodicThreadD2Ev:0000000000000034 .LFE65
     /tmp/cc0nkMex.s:4257   .debug_loc:0000000000000082 .LLST9
     /tmp/cc0nkMex.s:394    .text._ZN14PeriodicThreadD2Ev:0000000000000024 .LVL25
     /tmp/cc0nkMex.s:933    .text:000000000000040c .LFB63
     /tmp/cc0nkMex.s:959    .text:0000000000000434 .LFE63
     /tmp/cc0nkMex.s:4271   .debug_loc:00000000000000bb .LLST22
     /tmp/cc0nkMex.s:948    .text:0000000000000424 .LVL63
     /tmp/cc0nkMex.s:902    .text:00000000000003e4 .LFB62
     /tmp/cc0nkMex.s:927    .text:000000000000040c .LFE62
     /tmp/cc0nkMex.s:916    .text:00000000000003fc .LVL61
     /tmp/cc0nkMex.s:98     .text:000000000000002c .LFB61
     /tmp/cc0nkMex.s:148    .text:0000000000000080 .LFE61
     /tmp/cc0nkMex.s:4285   .debug_loc:00000000000000f4 .LLST1
     /tmp/cc0nkMex.s:126    .text:000000000000005c .LVL6
     /tmp/cc0nkMex.s:131    .text:0000000000000068 .LVL7
     /tmp/cc0nkMex.s:868    .text:00000000000003b8 .LFB60
     /tmp/cc0nkMex.s:896    .text:00000000000003e4 .LFE60
     /tmp/cc0nkMex.s:4303   .debug_loc:0000000000000140 .LLST21
     /tmp/cc0nkMex.s:885    .text:00000000000003d4 .LVL60
     /tmp/cc0nkMex.s:834    .text:000000000000038c .LFB59
     /tmp/cc0nkMex.s:862    .text:00000000000003b8 .LFE59
     /tmp/cc0nkMex.s:4317   .debug_loc:0000000000000179 .LLST20
     /tmp/cc0nkMex.s:851    .text:00000000000003a8 .LVL57
     /tmp/cc0nkMex.s:4733   .debug_str:00000000000003e1 .LASF135
     /tmp/cc0nkMex.s:453    .text:00000000000001d0 .LFB58
     /tmp/cc0nkMex.s:486    .text:0000000000000210 .LFE58
     /tmp/cc0nkMex.s:4331   .debug_loc:00000000000001b2 .LLST11
     /tmp/cc0nkMex.s:470    .text:00000000000001f0 .LVL31
     /tmp/cc0nkMex.s:473    .text:00000000000001fc .LVL32
     /tmp/cc0nkMex.s:4621   .debug_str:00000000000000bb .LASF136
     /tmp/cc0nkMex.s:154    .text:0000000000000080 .LFB56
     /tmp/cc0nkMex.s:189    .text:00000000000000b8 .LFE56
     /tmp/cc0nkMex.s:4349   .debug_loc:00000000000001fe .LLST2
     /tmp/cc0nkMex.s:177    .text:00000000000000a8 .LVL11
     /tmp/cc0nkMex.s:4657   .debug_str:0000000000000191 .LASF137
     /tmp/cc0nkMex.s:793    .text:0000000000000354 .LFB53
     /tmp/cc0nkMex.s:826    .text:000000000000038c .LFE53
     /tmp/cc0nkMex.s:4363   .debug_loc:0000000000000237 .LLST18
     /tmp/cc0nkMex.s:4383   .debug_loc:0000000000000285 .LLST19
     /tmp/cc0nkMex.s:814    .text:000000000000037c .LVL54
     /tmp/cc0nkMex.s:761    .text:000000000000032c .LFB51
     /tmp/cc0nkMex.s:787    .text:0000000000000354 .LFE51
     /tmp/cc0nkMex.s:4813   .debug_str:0000000000000641 .LASF138
     /tmp/cc0nkMex.s:4397   .debug_loc:00000000000002be .LLST17
     /tmp/cc0nkMex.s:776    .text:0000000000000344 .LVL51
     /tmp/cc0nkMex.s:730    .text:0000000000000304 .LFB50
     /tmp/cc0nkMex.s:755    .text:000000000000032c .LFE50
     /tmp/cc0nkMex.s:744    .text:000000000000031c .LVL49
     /tmp/cc0nkMex.s:696    .text:00000000000002d8 .LFB49
     /tmp/cc0nkMex.s:724    .text:0000000000000304 .LFE49
     /tmp/cc0nkMex.s:4411   .debug_loc:00000000000002f7 .LLST16
     /tmp/cc0nkMex.s:713    .text:00000000000002f4 .LVL48
     /tmp/cc0nkMex.s:658    .text:00000000000002a0 .LFB48
     /tmp/cc0nkMex.s:690    .text:00000000000002d8 .LFE48
GAS LISTING /tmp/cc0nkMex.s 			page 34


     /tmp/cc0nkMex.s:4425   .debug_loc:0000000000000330 .LLST15
     /tmp/cc0nkMex.s:677    .text:00000000000002c4 .LVL45
     /tmp/cc0nkMex.s:4763   .debug_str:00000000000004cb .LASF139
     /tmp/cc0nkMex.s:414    .text:0000000000000190 .LFB47
     /tmp/cc0nkMex.s:447    .text:00000000000001d0 .LFE47
     /tmp/cc0nkMex.s:4445   .debug_loc:000000000000037e .LLST10
     /tmp/cc0nkMex.s:431    .text:00000000000001b0 .LVL27
     /tmp/cc0nkMex.s:434    .text:00000000000001bc .LVL28
     /tmp/cc0nkMex.s:4825   .debug_str:000000000000069a .LASF140
     /tmp/cc0nkMex.s:310    .text:0000000000000130 .LFB45
     /tmp/cc0nkMex.s:368    .text:0000000000000190 .LFE45
     /tmp/cc0nkMex.s:4463   .debug_loc:00000000000003ca .LLST6
     /tmp/cc0nkMex.s:331    .text:0000000000000154 .LBB10
     /tmp/cc0nkMex.s:340    .text:000000000000015c .LBE10
     /tmp/cc0nkMex.s:4477   .debug_loc:0000000000000403 .LLST7
     /tmp/cc0nkMex.s:4485   .debug_loc:0000000000000427 .LLST8
     /tmp/cc0nkMex.s:350    .text:0000000000000170 .LVL22
     /tmp/cc0nkMex.s:353    .text:000000000000017c .LVL23
     /tmp/cc0nkMex.s:62     .text:0000000000000000 .LFB43
     /tmp/cc0nkMex.s:92     .text:000000000000002c .LFE43
     /tmp/cc0nkMex.s:4492   .debug_loc:000000000000044a .LLST0
     /tmp/cc0nkMex.s:81     .text:000000000000001c .LVL3
     /tmp/cc0nkMex.s:4845   .debug_str:000000000000072a .LASF141
     /tmp/cc0nkMex.s:619    .text:0000000000000268 .LFB41
     /tmp/cc0nkMex.s:650    .text:00000000000002a0 .LFE41
     /tmp/cc0nkMex.s:4917   .debug_str:00000000000009cb .LASF142
     /tmp/cc0nkMex.s:581    .text:0000000000000238 .LFB38
     /tmp/cc0nkMex.s:611    .text:0000000000000268 .LFE38
     /tmp/cc0nkMex.s:4959   .debug_str:0000000000000ac7 .LASF143
     /tmp/cc0nkMex.s:4797   .debug_str:00000000000005d9 .LASF144
     /tmp/cc0nkMex.s:540    .text:0000000000000210 .LFB36
     /tmp/cc0nkMex.s:568    .text:0000000000000238 .LFE36
     /tmp/cc0nkMex.s:4649   .debug_str:0000000000000166 .LASF145
     /tmp/cc0nkMex.s:4506   .debug_loc:0000000000000483 .LLST14
     /tmp/cc0nkMex.s:557    .text:0000000000000228 .LVL40
     /tmp/cc0nkMex.s:4607   .debug_str:000000000000004f .LASF146
     /tmp/cc0nkMex.s:4941   .debug_str:0000000000000a6a .LASF147
     /tmp/cc0nkMex.s:269    .text:0000000000000108 .LFB35
     /tmp/cc0nkMex.s:297    .text:0000000000000130 .LFE35
     /tmp/cc0nkMex.s:4520   .debug_loc:00000000000004bc .LLST5
     /tmp/cc0nkMex.s:286    .text:0000000000000120 .LVL17
     /tmp/cc0nkMex.s:4777   .debug_str:0000000000000526 .LASF148
     /tmp/cc0nkMex.s:4625   .debug_str:00000000000000d7 .LASF149
     /tmp/cc0nkMex.s:237    .text:00000000000000e0 .LFB34
     /tmp/cc0nkMex.s:263    .text:0000000000000108 .LFE34
     /tmp/cc0nkMex.s:4534   .debug_loc:00000000000004f5 .LLST4
     /tmp/cc0nkMex.s:252    .text:00000000000000f8 .LVL15
     /tmp/cc0nkMex.s:4963   .debug_str:0000000000000aed .LASF150
     /tmp/cc0nkMex.s:4693   .debug_str:00000000000002ae .LASF151
     /tmp/cc0nkMex.s:205    .text:00000000000000b8 .LFB33
     /tmp/cc0nkMex.s:231    .text:00000000000000e0 .LFE33
     /tmp/cc0nkMex.s:4753   .debug_str:0000000000000487 .LASF152
     /tmp/cc0nkMex.s:4548   .debug_loc:000000000000052e .LLST3
     /tmp/cc0nkMex.s:220    .text:00000000000000d0 .LVL13
     /tmp/cc0nkMex.s:37     .text._ZN14PeriodicThread18periodicActivationEv:0000000000000000 .LFB32
     /tmp/cc0nkMex.s:55     .text._ZN14PeriodicThread18periodicActivationEv:0000000000000018 .LFE32
     /tmp/cc0nkMex.s:11     .text._ZN6Thread3runEv:0000000000000000 .LFB27
GAS LISTING /tmp/cc0nkMex.s 			page 35


     /tmp/cc0nkMex.s:30     .text._ZN6Thread3runEv:0000000000000018 .LFE27
     /tmp/cc0nkMex.s:4883   .debug_str:0000000000000844 .LASF153
     /tmp/cc0nkMex.s:4939   .debug_str:0000000000000a61 .LASF154
     /tmp/cc0nkMex.s:4817   .debug_str:0000000000000658 .LASF156
     /tmp/cc0nkMex.s:4669   .debug_str:00000000000001fc .LASF157
     /tmp/cc0nkMex.s:4877   .debug_str:0000000000000817 .LASF158
     /tmp/cc0nkMex.s:4719   .debug_str:0000000000000398 .LASF159
     /tmp/cc0nkMex.s:4773   .debug_str:000000000000050d .LASF160
     /tmp/cc0nkMex.s:4965   .debug_str:0000000000000afa .LASF161
     /tmp/cc0nkMex.s:4815   .debug_str:0000000000000646 .LASF162
     /tmp/cc0nkMex.s:4829   .debug_str:00000000000006bf .LASF163
     /tmp/cc0nkMex.s:4933   .debug_str:0000000000000a2d .LASF164
     /tmp/cc0nkMex.s:4833   .debug_str:00000000000006d9 .LASF165
     /tmp/cc0nkMex.s:4619   .debug_str:00000000000000a6 .LASF166
     /tmp/cc0nkMex.s:4831   .debug_str:00000000000006c9 .LASF167
     /tmp/cc0nkMex.s:4867   .debug_str:00000000000007d6 .LASF168
     /tmp/cc0nkMex.s:4791   .debug_str:00000000000005a6 .LASF169
     /tmp/cc0nkMex.s:4703   .debug_str:00000000000002e9 .LASF170
     /tmp/cc0nkMex.s:4945   .debug_str:0000000000000a76 .LASF171
     /tmp/cc0nkMex.s:4949   .debug_str:0000000000000a95 .LASF172
     /tmp/cc0nkMex.s:4725   .debug_str:00000000000003b5 .LASF173
     /tmp/cc0nkMex.s:4717   .debug_str:000000000000038a .LASF174
     /tmp/cc0nkMex.s:4781   .debug_str:000000000000055d .LASF175
     /tmp/cc0nkMex.s:496    .text._ZN14PeriodicThreadD0Ev:0000000000000000 .LVL34
     /tmp/cc0nkMex.s:528    .text._ZN14PeriodicThreadD0Ev:0000000000000044 .LVL38
     /tmp/cc0nkMex.s:508    .text._ZN14PeriodicThreadD0Ev:0000000000000018 .LVL35
     /tmp/cc0nkMex.s:380    .text._ZN14PeriodicThreadD2Ev:0000000000000000 .LVL24
     /tmp/cc0nkMex.s:936    .text:000000000000040c .LVL62
     /tmp/cc0nkMex.s:101    .text:000000000000002c .LVL4
     /tmp/cc0nkMex.s:113    .text:0000000000000044 .LVL5
     /tmp/cc0nkMex.s:143    .text:0000000000000078 .LVL8
     /tmp/cc0nkMex.s:871    .text:00000000000003b8 .LVL58
     /tmp/cc0nkMex.s:883    .text:00000000000003cc .LVL59
     /tmp/cc0nkMex.s:837    .text:000000000000038c .LVL55
     /tmp/cc0nkMex.s:849    .text:00000000000003a0 .LVL56
     /tmp/cc0nkMex.s:456    .text:00000000000001d0 .LVL30
     /tmp/cc0nkMex.s:481    .text:0000000000000208 .LVL33
     /tmp/cc0nkMex.s:159    .text:0000000000000080 .LVL9
     /tmp/cc0nkMex.s:175    .text:00000000000000a0 .LVL10
     /tmp/cc0nkMex.s:796    .text:0000000000000354 .LVL52
     /tmp/cc0nkMex.s:812    .text:0000000000000374 .LVL53
     /tmp/cc0nkMex.s:764    .text:000000000000032c .LVL50
     /tmp/cc0nkMex.s:699    .text:00000000000002d8 .LVL46
     /tmp/cc0nkMex.s:711    .text:00000000000002ec .LVL47
     /tmp/cc0nkMex.s:661    .text:00000000000002a0 .LVL43
     /tmp/cc0nkMex.s:675    .text:00000000000002bc .LVL44
     /tmp/cc0nkMex.s:417    .text:0000000000000190 .LVL26
     /tmp/cc0nkMex.s:442    .text:00000000000001c8 .LVL29
     /tmp/cc0nkMex.s:313    .text:0000000000000130 .LVL18
     /tmp/cc0nkMex.s:348    .text:0000000000000168 .LVL21
     /tmp/cc0nkMex.s:330    .text:0000000000000154 .LVL19
     /tmp/cc0nkMex.s:338    .text:000000000000015c .LVL20
     /tmp/cc0nkMex.s:66     .text:0000000000000000 .LVL2
     /tmp/cc0nkMex.s:545    .text:0000000000000210 .LVL39
     /tmp/cc0nkMex.s:274    .text:0000000000000108 .LVL16
     /tmp/cc0nkMex.s:240    .text:00000000000000e0 .LVL14
     /tmp/cc0nkMex.s:208    .text:00000000000000b8 .LVL12
GAS LISTING /tmp/cc0nkMex.s 			page 36


     /tmp/cc0nkMex.s:1001   .debug_info:0000000000000000 .Ldebug_info0
     /tmp/cc0nkMex.s:5      .text:0000000000000000 .Ltext0
     /tmp/cc0nkMex.s:995    .text:0000000000000434 .Letext0
     /tmp/cc0nkMex.s:192    .gcc_except_table:0000000000000000 .LLSDA56
     /tmp/cc0nkMex.s:299    .gcc_except_table:0000000000000004 .LLSDA35
     /tmp/cc0nkMex.s:570    .gcc_except_table:0000000000000008 .LLSDA36
                           .group:0000000000000000 _ZN14PeriodicThreadD5Ev

UNDEFINED SYMBOLS
_Z10time_sleepm
_Z9sem_closeP3Sem
__gxx_personality_v0
_Z9mem_allocm
_Z8mem_freePv
_ZN3TCBD1Ev
_Z13thread_createPP3TCBPFvPvES2_
_Z11thread_joinP3TCB
_Z15thread_dispatchv
_Z8sem_openPP3Semj
_Z8sem_waitP3Sem
_Z10sem_signalP3Sem
_Z4getcv
_Z4putcc
