GAS LISTING /tmp/cc59tAxP.s 			page 1


   1              		.file	"syscall_c.cpp"
   2              		.option pic
   3              		.option norelax
   4              		.text
   5              	.Ltext0:
   6              		.align	2
   7              		.globl	_Z7syscalliz
   9              	_Z7syscalliz:
  10              	.LFB33:
  11              		.file 1 "src/syscall_c.cpp"
   1:src/syscall_c.cpp **** #include "../h/syscall_c.hpp"
   2:src/syscall_c.cpp **** 
   3:src/syscall_c.cpp **** void syscall(int id, ... ) {
  12              		.loc 1 3 28
  13              		.cfi_startproc
  14              	.LVL0:
  15 0000 130101FB 		addi	sp,sp,-80
  16              		.cfi_def_cfa_offset 80
  17 0004 23348100 		sd	s0,8(sp)
  18              		.cfi_offset 8, -72
  19 0008 13040101 		addi	s0,sp,16
  20              		.cfi_def_cfa 8, 64
  21 000c 2334B400 		sd	a1,8(s0)
  22 0010 2338C400 		sd	a2,16(s0)
  23 0014 233CD400 		sd	a3,24(s0)
  24 0018 2330E402 		sd	a4,32(s0)
  25 001c 2334F402 		sd	a5,40(s0)
  26 0020 23380403 		sd	a6,48(s0)
  27 0024 233C1403 		sd	a7,56(s0)
   4:src/syscall_c.cpp ****     __asm__ volatile("ecall");
  28              		.loc 1 4 5
  29              		.loc 1 4 30 is_stmt 0
  30              	#APP
  31              	# 4 "src/syscall_c.cpp" 1
   5              	}
  32              		ecall
  33              	# 0 "" 2
  34              		.loc 1 5 1
  35              	#NO_APP
  36 002c 03348100 		ld	s0,8(sp)
  37              		.cfi_restore 8
  38              		.cfi_def_cfa 2, 80
  39 0030 13010105 		addi	sp,sp,80
  40              		.cfi_def_cfa_offset 0
  41 0034 67800000 		jr	ra
  42              		.cfi_endproc
  43              	.LFE33:
  45              		.align	2
  46              		.globl	_Z9mem_allocm
  48              	_Z9mem_allocm:
  49              	.LFB34:
   6:src/syscall_c.cpp **** 
   7:src/syscall_c.cpp **** void *mem_alloc(uint64 size) {
  50              		.loc 1 7 30 is_stmt 1
  51              		.cfi_startproc
  52              	.LVL1:
  53 0038 130101FF 		addi	sp,sp,-16
GAS LISTING /tmp/cc59tAxP.s 			page 2


  54              		.cfi_def_cfa_offset 16
  55 003c 23341100 		sd	ra,8(sp)
  56 0040 23308100 		sd	s0,0(sp)
  57              		.cfi_offset 1, -8
  58              		.cfi_offset 8, -16
  59 0044 13040101 		addi	s0,sp,16
  60              		.cfi_def_cfa 8, 0
   8:src/syscall_c.cpp ****     size = (size + sizeof(MemoryAllocator::MemSegment) + MEM_BLOCK_SIZE - 1 ) / MEM_BLOCK_SIZE;
  61              		.loc 1 8 5
  62              		.loc 1 8 73 is_stmt 0
  63 0048 93057505 		addi	a1,a0,87
  64              	.LVL2:
   9:src/syscall_c.cpp **** 
  10:src/syscall_c.cpp ****     syscall(MEM_ALLOC_CODE, size);
  65              		.loc 1 10 5 is_stmt 1
  66              		.loc 1 10 12 is_stmt 0
  67 004c 93D56500 		srli	a1,a1,6
  68              	.LVL3:
  69 0050 13051000 		li	a0,1
  70 0054 97000000 		call	_Z7syscalliz
  70      E7800000 
  71              	.LVL4:
  11:src/syscall_c.cpp **** 
  12:src/syscall_c.cpp ****     void *ret;
  72              		.loc 1 12 5 is_stmt 1
  13:src/syscall_c.cpp ****     __asm__ volatile("mv %0, a0" : "=r" (ret));
  73              		.loc 1 13 5
  74              		.loc 1 13 47 is_stmt 0
  75              	#APP
  76              	# 13 "src/syscall_c.cpp" 1
  14              	    return ret;
  77              		mv a0, a0
  78              	# 0 "" 2
  79              	.LVL5:
  80              		.loc 1 14 5 is_stmt 1
  15:src/syscall_c.cpp **** }
  81              		.loc 1 15 1 is_stmt 0
  82              	#NO_APP
  83 0060 83308100 		ld	ra,8(sp)
  84              		.cfi_restore 1
  85 0064 03340100 		ld	s0,0(sp)
  86              		.cfi_restore 8
  87              		.cfi_def_cfa 2, 16
  88 0068 13010101 		addi	sp,sp,16
  89              		.cfi_def_cfa_offset 0
  90 006c 67800000 		jr	ra
  91              		.cfi_endproc
  92              	.LFE34:
  94              		.align	2
  95              		.globl	_Z8mem_freePv
  97              	_Z8mem_freePv:
  98              	.LFB35:
  16:src/syscall_c.cpp **** 
  17:src/syscall_c.cpp **** int mem_free(void* adress) {
  99              		.loc 1 17 28 is_stmt 1
 100              		.cfi_startproc
 101              	.LVL6:
GAS LISTING /tmp/cc59tAxP.s 			page 3


 102 0070 130101FF 		addi	sp,sp,-16
 103              		.cfi_def_cfa_offset 16
 104 0074 23341100 		sd	ra,8(sp)
 105 0078 23308100 		sd	s0,0(sp)
 106              		.cfi_offset 1, -8
 107              		.cfi_offset 8, -16
 108 007c 13040101 		addi	s0,sp,16
 109              		.cfi_def_cfa 8, 0
 110 0080 93050500 		mv	a1,a0
  18:src/syscall_c.cpp ****     syscall(MEM_FREE_CODE, adress);
 111              		.loc 1 18 5
 112              		.loc 1 18 12 is_stmt 0
 113 0084 13052000 		li	a0,2
 114              	.LVL7:
 115 0088 97000000 		call	_Z7syscalliz
 115      E7800000 
 116              	.LVL8:
  19:src/syscall_c.cpp **** 
  20:src/syscall_c.cpp ****     int ret;
 117              		.loc 1 20 5 is_stmt 1
  21:src/syscall_c.cpp ****     __asm__ volatile("mv a0, %0" : "=r" (ret));
 118              		.loc 1 21 5
 119              		.loc 1 21 47 is_stmt 0
 120              	#APP
 121              	# 21 "src/syscall_c.cpp" 1
  22              	    return ret;
 122              		mv a0, a0
 123              	# 0 "" 2
 124              	.LVL9:
 125              		.loc 1 22 5 is_stmt 1
  23:src/syscall_c.cpp **** }
 126              		.loc 1 23 1 is_stmt 0
 127              	#NO_APP
 128 0094 1B050500 		sext.w	a0,a0
 129 0098 83308100 		ld	ra,8(sp)
 130              		.cfi_restore 1
 131 009c 03340100 		ld	s0,0(sp)
 132              		.cfi_restore 8
 133              		.cfi_def_cfa 2, 16
 134 00a0 13010101 		addi	sp,sp,16
 135              		.cfi_def_cfa_offset 0
 136 00a4 67800000 		jr	ra
 137              		.cfi_endproc
 138              	.LFE35:
 140              		.align	2
 141              		.globl	_Z13thread_createPP3TCBPFvPvES2_
 143              	_Z13thread_createPP3TCBPFvPvES2_:
 144              	.LFB36:
  24:src/syscall_c.cpp **** 
  25:src/syscall_c.cpp **** 
  26:src/syscall_c.cpp **** int thread_create(TCB **handle, void(*start_routine)(void*), void *arg) {
 145              		.loc 1 26 73 is_stmt 1
 146              		.cfi_startproc
 147              	.LVL10:
 148 00a8 130101FD 		addi	sp,sp,-48
 149              		.cfi_def_cfa_offset 48
 150 00ac 23341102 		sd	ra,40(sp)
GAS LISTING /tmp/cc59tAxP.s 			page 4


 151 00b0 23308102 		sd	s0,32(sp)
 152 00b4 233C9100 		sd	s1,24(sp)
 153 00b8 23382101 		sd	s2,16(sp)
 154 00bc 23343101 		sd	s3,8(sp)
 155              		.cfi_offset 1, -8
 156              		.cfi_offset 8, -16
 157              		.cfi_offset 9, -24
 158              		.cfi_offset 18, -32
 159              		.cfi_offset 19, -40
 160 00c0 13040103 		addi	s0,sp,48
 161              		.cfi_def_cfa 8, 0
 162 00c4 93040500 		mv	s1,a0
 163 00c8 13890500 		mv	s2,a1
 164 00cc 93090600 		mv	s3,a2
  27:src/syscall_c.cpp ****     void *stack = (uint64*)(new uint64[DEFAULT_STACK_SIZE]);
 165              		.loc 1 27 5
 166              		.loc 1 27 58 is_stmt 0
 167 00d0 37850000 		li	a0,32768
 168              	.LVL11:
 169 00d4 97000000 		call	_Znam@plt
 169      E7800000 
 170              	.LVL12:
 171 00dc 13070500 		mv	a4,a0
 172              	.LVL13:
  28:src/syscall_c.cpp ****     syscall(THREAD_CREATE_CODE, handle, start_routine, arg, stack);
 173              		.loc 1 28 5 is_stmt 1
 174              		.loc 1 28 12 is_stmt 0
 175 00e0 93860900 		mv	a3,s3
 176 00e4 13060900 		mv	a2,s2
 177 00e8 93850400 		mv	a1,s1
 178 00ec 13051001 		li	a0,17
 179              	.LVL14:
 180 00f0 97000000 		call	_Z7syscalliz
 180      E7800000 
 181              	.LVL15:
  29:src/syscall_c.cpp **** 
  30:src/syscall_c.cpp ****     int ret;
 182              		.loc 1 30 5 is_stmt 1
  31:src/syscall_c.cpp ****     __asm__ volatile("mv a0, %0" : "=r" (ret));
 183              		.loc 1 31 5
 184              		.loc 1 31 47 is_stmt 0
 185              	#APP
 186              	# 31 "src/syscall_c.cpp" 1
  32              	    return ret;
 187              		mv a0, a0
 188              	# 0 "" 2
 189              	.LVL16:
 190              		.loc 1 32 5 is_stmt 1
  33:src/syscall_c.cpp **** }
 191              		.loc 1 33 1 is_stmt 0
 192              	#NO_APP
 193 00fc 1B050500 		sext.w	a0,a0
 194 0100 83308102 		ld	ra,40(sp)
 195              		.cfi_restore 1
 196 0104 03340102 		ld	s0,32(sp)
 197              		.cfi_restore 8
 198              		.cfi_def_cfa 2, 48
GAS LISTING /tmp/cc59tAxP.s 			page 5


 199 0108 83348101 		ld	s1,24(sp)
 200              		.cfi_restore 9
 201              	.LVL17:
 202 010c 03390101 		ld	s2,16(sp)
 203              		.cfi_restore 18
 204              	.LVL18:
 205 0110 83398100 		ld	s3,8(sp)
 206              		.cfi_restore 19
 207              	.LVL19:
 208 0114 13010103 		addi	sp,sp,48
 209              		.cfi_def_cfa_offset 0
 210 0118 67800000 		jr	ra
 211              		.cfi_endproc
 212              	.LFE36:
 214              		.align	2
 215              		.globl	_Z11thread_exitv
 217              	_Z11thread_exitv:
 218              	.LFB37:
  34:src/syscall_c.cpp **** 
  35:src/syscall_c.cpp **** 
  36:src/syscall_c.cpp **** 
  37:src/syscall_c.cpp **** int thread_exit() {
 219              		.loc 1 37 19 is_stmt 1
 220              		.cfi_startproc
 221 011c 130101FF 		addi	sp,sp,-16
 222              		.cfi_def_cfa_offset 16
 223 0120 23341100 		sd	ra,8(sp)
 224 0124 23308100 		sd	s0,0(sp)
 225              		.cfi_offset 1, -8
 226              		.cfi_offset 8, -16
 227 0128 13040101 		addi	s0,sp,16
 228              		.cfi_def_cfa 8, 0
  38:src/syscall_c.cpp ****     syscall(THREAD_EXIT_CODE);
 229              		.loc 1 38 5
 230              		.loc 1 38 12 is_stmt 0
 231 012c 13052001 		li	a0,18
 232 0130 97000000 		call	_Z7syscalliz
 232      E7800000 
 233              	.LVL20:
  39:src/syscall_c.cpp **** 
  40:src/syscall_c.cpp ****     int ret;
 234              		.loc 1 40 5 is_stmt 1
  41:src/syscall_c.cpp ****     __asm__ volatile("mv a0, %0" : "=r" (ret));
 235              		.loc 1 41 5
 236              		.loc 1 41 47 is_stmt 0
 237              	#APP
 238              	# 41 "src/syscall_c.cpp" 1
  42              	    return ret;
 239              		mv a0, a0
 240              	# 0 "" 2
 241              	.LVL21:
 242              		.loc 1 42 5 is_stmt 1
  43:src/syscall_c.cpp **** }
 243              		.loc 1 43 1 is_stmt 0
 244              	#NO_APP
 245 013c 1B050500 		sext.w	a0,a0
 246 0140 83308100 		ld	ra,8(sp)
GAS LISTING /tmp/cc59tAxP.s 			page 6


 247              		.cfi_restore 1
 248 0144 03340100 		ld	s0,0(sp)
 249              		.cfi_restore 8
 250              		.cfi_def_cfa 2, 16
 251 0148 13010101 		addi	sp,sp,16
 252              		.cfi_def_cfa_offset 0
 253 014c 67800000 		jr	ra
 254              		.cfi_endproc
 255              	.LFE37:
 257              		.align	2
 258              		.globl	_Z15thread_dispatchv
 260              	_Z15thread_dispatchv:
 261              	.LFB38:
  44:src/syscall_c.cpp **** 
  45:src/syscall_c.cpp **** void thread_dispatch() {
 262              		.loc 1 45 24 is_stmt 1
 263              		.cfi_startproc
 264 0150 130101FF 		addi	sp,sp,-16
 265              		.cfi_def_cfa_offset 16
 266 0154 23341100 		sd	ra,8(sp)
 267 0158 23308100 		sd	s0,0(sp)
 268              		.cfi_offset 1, -8
 269              		.cfi_offset 8, -16
 270 015c 13040101 		addi	s0,sp,16
 271              		.cfi_def_cfa 8, 0
  46:src/syscall_c.cpp ****     syscall(THREAD_DISPATCH_CODE);
 272              		.loc 1 46 5
 273              		.loc 1 46 12 is_stmt 0
 274 0160 13053001 		li	a0,19
 275 0164 97000000 		call	_Z7syscalliz
 275      E7800000 
 276              	.LVL22:
  47:src/syscall_c.cpp **** }
 277              		.loc 1 47 1
 278 016c 83308100 		ld	ra,8(sp)
 279              		.cfi_restore 1
 280 0170 03340100 		ld	s0,0(sp)
 281              		.cfi_restore 8
 282              		.cfi_def_cfa 2, 16
 283 0174 13010101 		addi	sp,sp,16
 284              		.cfi_def_cfa_offset 0
 285 0178 67800000 		jr	ra
 286              		.cfi_endproc
 287              	.LFE38:
 289              		.align	2
 290              		.globl	_Z11thread_joinP3TCB
 292              	_Z11thread_joinP3TCB:
 293              	.LFB39:
  48:src/syscall_c.cpp **** 
  49:src/syscall_c.cpp **** void thread_join(TCB *handle) {
 294              		.loc 1 49 31 is_stmt 1
 295              		.cfi_startproc
 296              	.LVL23:
 297 017c 130101FF 		addi	sp,sp,-16
 298              		.cfi_def_cfa_offset 16
 299 0180 23341100 		sd	ra,8(sp)
 300 0184 23308100 		sd	s0,0(sp)
GAS LISTING /tmp/cc59tAxP.s 			page 7


 301              		.cfi_offset 1, -8
 302              		.cfi_offset 8, -16
 303 0188 13040101 		addi	s0,sp,16
 304              		.cfi_def_cfa 8, 0
 305 018c 93050500 		mv	a1,a0
  50:src/syscall_c.cpp ****     syscall(THREAD_JOIN_CODE, handle);
 306              		.loc 1 50 5
 307              		.loc 1 50 12 is_stmt 0
 308 0190 13054001 		li	a0,20
 309              	.LVL24:
 310 0194 97000000 		call	_Z7syscalliz
 310      E7800000 
 311              	.LVL25:
  51:src/syscall_c.cpp **** }
 312              		.loc 1 51 1
 313 019c 83308100 		ld	ra,8(sp)
 314              		.cfi_restore 1
 315 01a0 03340100 		ld	s0,0(sp)
 316              		.cfi_restore 8
 317              		.cfi_def_cfa 2, 16
 318 01a4 13010101 		addi	sp,sp,16
 319              		.cfi_def_cfa_offset 0
 320 01a8 67800000 		jr	ra
 321              		.cfi_endproc
 322              	.LFE39:
 324              		.align	2
 325              		.globl	_Z8sem_openPP3Semj
 327              	_Z8sem_openPP3Semj:
 328              	.LFB40:
  52:src/syscall_c.cpp **** 
  53:src/syscall_c.cpp **** int sem_open (Sem **handle, unsigned init) {
 329              		.loc 1 53 44 is_stmt 1
 330              		.cfi_startproc
 331              	.LVL26:
 332 01ac 130101FF 		addi	sp,sp,-16
 333              		.cfi_def_cfa_offset 16
 334 01b0 23341100 		sd	ra,8(sp)
 335 01b4 23308100 		sd	s0,0(sp)
 336              		.cfi_offset 1, -8
 337              		.cfi_offset 8, -16
 338 01b8 13040101 		addi	s0,sp,16
 339              		.cfi_def_cfa 8, 0
 340 01bc 13860500 		mv	a2,a1
  54:src/syscall_c.cpp ****     syscall(SEM_OPEN_CODE, handle, init);
 341              		.loc 1 54 5
 342              		.loc 1 54 12 is_stmt 0
 343 01c0 93050500 		mv	a1,a0
 344              	.LVL27:
 345 01c4 13051002 		li	a0,33
 346              	.LVL28:
 347 01c8 97000000 		call	_Z7syscalliz
 347      E7800000 
 348              	.LVL29:
  55:src/syscall_c.cpp **** 
  56:src/syscall_c.cpp ****     int ret;
 349              		.loc 1 56 5 is_stmt 1
  57:src/syscall_c.cpp ****     __asm__ volatile("mv a0, %0" : "=r" (ret));
GAS LISTING /tmp/cc59tAxP.s 			page 8


 350              		.loc 1 57 5
 351              		.loc 1 57 47 is_stmt 0
 352              	#APP
 353              	# 57 "src/syscall_c.cpp" 1
  58              	    return ret;
 354              		mv a0, a0
 355              	# 0 "" 2
 356              	.LVL30:
 357              		.loc 1 58 5 is_stmt 1
  59:src/syscall_c.cpp **** }
 358              		.loc 1 59 1 is_stmt 0
 359              	#NO_APP
 360 01d4 1B050500 		sext.w	a0,a0
 361 01d8 83308100 		ld	ra,8(sp)
 362              		.cfi_restore 1
 363 01dc 03340100 		ld	s0,0(sp)
 364              		.cfi_restore 8
 365              		.cfi_def_cfa 2, 16
 366 01e0 13010101 		addi	sp,sp,16
 367              		.cfi_def_cfa_offset 0
 368 01e4 67800000 		jr	ra
 369              		.cfi_endproc
 370              	.LFE40:
 372              		.align	2
 373              		.globl	_Z9sem_closeP3Sem
 375              	_Z9sem_closeP3Sem:
 376              	.LFB41:
  60:src/syscall_c.cpp **** 
  61:src/syscall_c.cpp **** int sem_close (Sem *handle) {
 377              		.loc 1 61 29 is_stmt 1
 378              		.cfi_startproc
 379              	.LVL31:
 380 01e8 130101FF 		addi	sp,sp,-16
 381              		.cfi_def_cfa_offset 16
 382 01ec 23341100 		sd	ra,8(sp)
 383 01f0 23308100 		sd	s0,0(sp)
 384              		.cfi_offset 1, -8
 385              		.cfi_offset 8, -16
 386 01f4 13040101 		addi	s0,sp,16
 387              		.cfi_def_cfa 8, 0
 388 01f8 93050500 		mv	a1,a0
  62:src/syscall_c.cpp ****     syscall(SEM_CLOSE_CODE, handle);
 389              		.loc 1 62 5
 390              		.loc 1 62 12 is_stmt 0
 391 01fc 13052002 		li	a0,34
 392              	.LVL32:
 393 0200 97000000 		call	_Z7syscalliz
 393      E7800000 
 394              	.LVL33:
  63:src/syscall_c.cpp **** 
  64:src/syscall_c.cpp ****     int ret;
 395              		.loc 1 64 5 is_stmt 1
  65:src/syscall_c.cpp ****     __asm__ volatile("mv a0, %0" : "=r" (ret));
 396              		.loc 1 65 5
 397              		.loc 1 65 47 is_stmt 0
 398              	#APP
 399              	# 65 "src/syscall_c.cpp" 1
GAS LISTING /tmp/cc59tAxP.s 			page 9


  66              	    return ret;
 400              		mv a0, a0
 401              	# 0 "" 2
 402              	.LVL34:
 403              		.loc 1 66 5 is_stmt 1
  67:src/syscall_c.cpp **** }
 404              		.loc 1 67 1 is_stmt 0
 405              	#NO_APP
 406 020c 1B050500 		sext.w	a0,a0
 407 0210 83308100 		ld	ra,8(sp)
 408              		.cfi_restore 1
 409 0214 03340100 		ld	s0,0(sp)
 410              		.cfi_restore 8
 411              		.cfi_def_cfa 2, 16
 412 0218 13010101 		addi	sp,sp,16
 413              		.cfi_def_cfa_offset 0
 414 021c 67800000 		jr	ra
 415              		.cfi_endproc
 416              	.LFE41:
 418              		.align	2
 419              		.globl	_Z8sem_waitP3Sem
 421              	_Z8sem_waitP3Sem:
 422              	.LFB42:
  68:src/syscall_c.cpp **** 
  69:src/syscall_c.cpp **** int sem_wait (Sem *id) {
 423              		.loc 1 69 24 is_stmt 1
 424              		.cfi_startproc
 425              	.LVL35:
 426 0220 130101FF 		addi	sp,sp,-16
 427              		.cfi_def_cfa_offset 16
 428 0224 23341100 		sd	ra,8(sp)
 429 0228 23308100 		sd	s0,0(sp)
 430              		.cfi_offset 1, -8
 431              		.cfi_offset 8, -16
 432 022c 13040101 		addi	s0,sp,16
 433              		.cfi_def_cfa 8, 0
 434 0230 93050500 		mv	a1,a0
  70:src/syscall_c.cpp ****     syscall(SEM_WAIT_CODE, id);
 435              		.loc 1 70 5
 436              		.loc 1 70 12 is_stmt 0
 437 0234 13053002 		li	a0,35
 438              	.LVL36:
 439 0238 97000000 		call	_Z7syscalliz
 439      E7800000 
 440              	.LVL37:
  71:src/syscall_c.cpp **** 
  72:src/syscall_c.cpp ****     int ret;
 441              		.loc 1 72 5 is_stmt 1
  73:src/syscall_c.cpp ****     __asm__ volatile("mv a0, %0" : "=r" (ret));
 442              		.loc 1 73 5
 443              		.loc 1 73 47 is_stmt 0
 444              	#APP
 445              	# 73 "src/syscall_c.cpp" 1
  74              	    return ret;
 446              		mv a0, a0
 447              	# 0 "" 2
 448              	.LVL38:
GAS LISTING /tmp/cc59tAxP.s 			page 10


 449              		.loc 1 74 5 is_stmt 1
  75:src/syscall_c.cpp **** }
 450              		.loc 1 75 1 is_stmt 0
 451              	#NO_APP
 452 0244 1B050500 		sext.w	a0,a0
 453 0248 83308100 		ld	ra,8(sp)
 454              		.cfi_restore 1
 455 024c 03340100 		ld	s0,0(sp)
 456              		.cfi_restore 8
 457              		.cfi_def_cfa 2, 16
 458 0250 13010101 		addi	sp,sp,16
 459              		.cfi_def_cfa_offset 0
 460 0254 67800000 		jr	ra
 461              		.cfi_endproc
 462              	.LFE42:
 464              		.align	2
 465              		.globl	_Z10sem_signalP3Sem
 467              	_Z10sem_signalP3Sem:
 468              	.LFB43:
  76:src/syscall_c.cpp **** 
  77:src/syscall_c.cpp **** int sem_signal (Sem *id) {
 469              		.loc 1 77 26 is_stmt 1
 470              		.cfi_startproc
 471              	.LVL39:
 472 0258 130101FF 		addi	sp,sp,-16
 473              		.cfi_def_cfa_offset 16
 474 025c 23341100 		sd	ra,8(sp)
 475 0260 23308100 		sd	s0,0(sp)
 476              		.cfi_offset 1, -8
 477              		.cfi_offset 8, -16
 478 0264 13040101 		addi	s0,sp,16
 479              		.cfi_def_cfa 8, 0
 480 0268 93050500 		mv	a1,a0
  78:src/syscall_c.cpp ****     syscall(SEM_SIGNAL_CODE, id);
 481              		.loc 1 78 5
 482              		.loc 1 78 12 is_stmt 0
 483 026c 13054002 		li	a0,36
 484              	.LVL40:
 485 0270 97000000 		call	_Z7syscalliz
 485      E7800000 
 486              	.LVL41:
  79:src/syscall_c.cpp **** 
  80:src/syscall_c.cpp ****     int ret;
 487              		.loc 1 80 5 is_stmt 1
  81:src/syscall_c.cpp ****     __asm__ volatile("mv a0, %0" : "=r" (ret));
 488              		.loc 1 81 5
 489              		.loc 1 81 47 is_stmt 0
 490              	#APP
 491              	# 81 "src/syscall_c.cpp" 1
  82              	    return ret;
 492              		mv a0, a0
 493              	# 0 "" 2
 494              	.LVL42:
 495              		.loc 1 82 5 is_stmt 1
  83:src/syscall_c.cpp **** }
 496              		.loc 1 83 1 is_stmt 0
 497              	#NO_APP
GAS LISTING /tmp/cc59tAxP.s 			page 11


 498 027c 1B050500 		sext.w	a0,a0
 499 0280 83308100 		ld	ra,8(sp)
 500              		.cfi_restore 1
 501 0284 03340100 		ld	s0,0(sp)
 502              		.cfi_restore 8
 503              		.cfi_def_cfa 2, 16
 504 0288 13010101 		addi	sp,sp,16
 505              		.cfi_def_cfa_offset 0
 506 028c 67800000 		jr	ra
 507              		.cfi_endproc
 508              	.LFE43:
 510              		.align	2
 511              		.globl	_Z10time_sleepm
 513              	_Z10time_sleepm:
 514              	.LFB44:
  84:src/syscall_c.cpp **** 
  85:src/syscall_c.cpp **** 
  86:src/syscall_c.cpp **** int time_sleep(time_t time) {
 515              		.loc 1 86 29 is_stmt 1
 516              		.cfi_startproc
 517              	.LVL43:
 518 0290 130101FF 		addi	sp,sp,-16
 519              		.cfi_def_cfa_offset 16
 520 0294 23341100 		sd	ra,8(sp)
 521 0298 23308100 		sd	s0,0(sp)
 522              		.cfi_offset 1, -8
 523              		.cfi_offset 8, -16
 524 029c 13040101 		addi	s0,sp,16
 525              		.cfi_def_cfa 8, 0
 526 02a0 93050500 		mv	a1,a0
  87:src/syscall_c.cpp ****     syscall(SLEEP_CODE, time);
 527              		.loc 1 87 5
 528              		.loc 1 87 12 is_stmt 0
 529 02a4 13051003 		li	a0,49
 530              	.LVL44:
 531 02a8 97000000 		call	_Z7syscalliz
 531      E7800000 
 532              	.LVL45:
  88:src/syscall_c.cpp **** 
  89:src/syscall_c.cpp ****     int ret;
 533              		.loc 1 89 5 is_stmt 1
  90:src/syscall_c.cpp ****     __asm__ volatile("mv a0, %0" : "=r" (ret));
 534              		.loc 1 90 5
 535              		.loc 1 90 47 is_stmt 0
 536              	#APP
 537              	# 90 "src/syscall_c.cpp" 1
  91              	    return ret;
 538              		mv a0, a0
 539              	# 0 "" 2
 540              	.LVL46:
 541              		.loc 1 91 5 is_stmt 1
  92:src/syscall_c.cpp **** }
 542              		.loc 1 92 1 is_stmt 0
 543              	#NO_APP
 544 02b4 1B050500 		sext.w	a0,a0
 545 02b8 83308100 		ld	ra,8(sp)
 546              		.cfi_restore 1
GAS LISTING /tmp/cc59tAxP.s 			page 12


 547 02bc 03340100 		ld	s0,0(sp)
 548              		.cfi_restore 8
 549              		.cfi_def_cfa 2, 16
 550 02c0 13010101 		addi	sp,sp,16
 551              		.cfi_def_cfa_offset 0
 552 02c4 67800000 		jr	ra
 553              		.cfi_endproc
 554              	.LFE44:
 556              		.align	2
 557              		.globl	_Z4getcv
 559              	_Z4getcv:
 560              	.LFB45:
  93:src/syscall_c.cpp **** 
  94:src/syscall_c.cpp **** char getc() {
 561              		.loc 1 94 13 is_stmt 1
 562              		.cfi_startproc
 563 02c8 130101FF 		addi	sp,sp,-16
 564              		.cfi_def_cfa_offset 16
 565 02cc 23341100 		sd	ra,8(sp)
 566 02d0 23308100 		sd	s0,0(sp)
 567              		.cfi_offset 1, -8
 568              		.cfi_offset 8, -16
 569 02d4 13040101 		addi	s0,sp,16
 570              		.cfi_def_cfa 8, 0
  95:src/syscall_c.cpp ****     syscall(CONSOLE_GETC_CODE);
 571              		.loc 1 95 5
 572              		.loc 1 95 12 is_stmt 0
 573 02d8 13051004 		li	a0,65
 574 02dc 97000000 		call	_Z7syscalliz
 574      E7800000 
 575              	.LVL47:
  96:src/syscall_c.cpp **** 
  97:src/syscall_c.cpp ****     char ret;
 576              		.loc 1 97 5 is_stmt 1
  98:src/syscall_c.cpp ****     __asm__ volatile("mv a0, %0" : "=r" (ret));
 577              		.loc 1 98 5
 578              		.loc 1 98 47 is_stmt 0
 579              	#APP
 580              	# 98 "src/syscall_c.cpp" 1
  99              	    return ret;
 581              		mv a0, a0
 582              	# 0 "" 2
 583              	.LVL48:
 584              		.loc 1 99 5 is_stmt 1
 100:src/syscall_c.cpp **** }
 585              		.loc 1 100 1 is_stmt 0
 586              	#NO_APP
 587 02e8 1375F50F 		andi	a0,a0,0xff
 588 02ec 83308100 		ld	ra,8(sp)
 589              		.cfi_restore 1
 590 02f0 03340100 		ld	s0,0(sp)
 591              		.cfi_restore 8
 592              		.cfi_def_cfa 2, 16
 593 02f4 13010101 		addi	sp,sp,16
 594              		.cfi_def_cfa_offset 0
 595 02f8 67800000 		jr	ra
 596              		.cfi_endproc
GAS LISTING /tmp/cc59tAxP.s 			page 13


 597              	.LFE45:
 599              		.align	2
 600              		.globl	_Z4putcc
 602              	_Z4putcc:
 603              	.LFB46:
 101:src/syscall_c.cpp **** 
 102:src/syscall_c.cpp **** void putc(char c) {
 604              		.loc 1 102 19 is_stmt 1
 605              		.cfi_startproc
 606              	.LVL49:
 607 02fc 130101FF 		addi	sp,sp,-16
 608              		.cfi_def_cfa_offset 16
 609 0300 23341100 		sd	ra,8(sp)
 610 0304 23308100 		sd	s0,0(sp)
 611              		.cfi_offset 1, -8
 612              		.cfi_offset 8, -16
 613 0308 13040101 		addi	s0,sp,16
 614              		.cfi_def_cfa 8, 0
 615 030c 93050500 		mv	a1,a0
 103:src/syscall_c.cpp ****     syscall(CONSOLE_PUTC_CODE, c);
 616              		.loc 1 103 5
 617              		.loc 1 103 12 is_stmt 0
 618 0310 13052004 		li	a0,66
 619              	.LVL50:
 620 0314 97000000 		call	_Z7syscalliz
 620      E7800000 
 621              	.LVL51:
 104:src/syscall_c.cpp **** }
 622              		.loc 1 104 1
 623 031c 83308100 		ld	ra,8(sp)
 624              		.cfi_restore 1
 625 0320 03340100 		ld	s0,0(sp)
 626              		.cfi_restore 8
 627              		.cfi_def_cfa 2, 16
 628 0324 13010101 		addi	sp,sp,16
 629              		.cfi_def_cfa_offset 0
 630 0328 67800000 		jr	ra
 631              		.cfi_endproc
 632              	.LFE46:
 634              	.Letext0:
 635              		.file 2 "src/../h/../lib/hw.h"
 636              		.file 3 "src/../h/../h/TCB.hpp"
 637              		.file 4 "src/../h/../h/Blocked.hpp"
 638              		.file 5 "src/../h/../h/Sem.hpp"
 639              		.file 6 "src/../h/syscall_c.hpp"
 640              		.file 7 "src/../h/../h/syscall_cpp.hpp"
GAS LISTING /tmp/cc59tAxP.s 			page 14

