GAS LISTING /tmp/ccMPtmRV.s 			page 1


   1              		.file	"TCB.cpp"
   2              		.option pic
   3              		.option norelax
   4              		.text
   5              	.Ltext0:
   6              		.align	2
   7              		.globl	_ZN3TCBC2EPFvPvES0_S0_
   9              	_ZN3TCBC2EPFvPvES0_S0_:
  10              	.LFB35:
  11              		.file 1 "src/TCB.cpp"
   1:src/TCB.cpp   **** #include "../h/TCB.hpp"
   2:src/TCB.cpp   **** #include "../h/syscall_c.hpp"
   3:src/TCB.cpp   **** 
   4:src/TCB.cpp   **** extern "C" void pushRegisters();
   5:src/TCB.cpp   **** extern "C" void popRegisters();
   6:src/TCB.cpp   **** extern "C" void contextSwitch(TCB::Context *oldContext, TCB::Context *runningContext);
   7:src/TCB.cpp   **** 
   8:src/TCB.cpp   **** TCB *TCB::running = nullptr;
   9:src/TCB.cpp   **** uint64 TCB::timeSliceCounter = 0;
  10:src/TCB.cpp   **** bool TCB::userMode = false;
  11:src/TCB.cpp   **** 
  12:src/TCB.cpp   **** int TCB::createThread(TCB **handle, TCB::Body body, void *arg, void *stack) {
  13:src/TCB.cpp   ****     *handle = new TCB(body, arg, stack);
  14:src/TCB.cpp   ****     if(*handle) return 0;
  15:src/TCB.cpp   ****     else return -1;
  16:src/TCB.cpp   **** }
  17:src/TCB.cpp   **** 
  18:src/TCB.cpp   **** TCB::TCB(TCB::Body b, void *a, void *s) : body(b), arg(a) {
  12              		.loc 1 18 1
  13              		.cfi_startproc
  14              	.LVL0:
  15 0000 130101FE 		addi	sp,sp,-32
  16              		.cfi_def_cfa_offset 32
  17 0004 233C1100 		sd	ra,24(sp)
  18 0008 23388100 		sd	s0,16(sp)
  19 000c 23349100 		sd	s1,8(sp)
  20              		.cfi_offset 1, -8
  21              		.cfi_offset 8, -16
  22              		.cfi_offset 9, -24
  23 0010 13040102 		addi	s0,sp,32
  24              		.cfi_def_cfa 8, 0
  25 0014 93040500 		mv	s1,a0
  26              	.LBB23:
  27              		.loc 1 18 57 is_stmt 0
  28 0018 2330B500 		sd	a1,0(a0)
  29 001c 2334C500 		sd	a2,8(a0)
  30 0020 23040502 		sb	zero,40(a0)
  31 0024 A3040502 		sb	zero,41(a0)
  32 0028 23050502 		sb	zero,42(a0)
  33 002c A3050502 		sb	zero,43(a0)
  34 0030 93072000 		li	a5,2
  35 0034 2338F502 		sd	a5,48(a0)
  36 0038 23300504 		sd	zero,64(a0)
  19:src/TCB.cpp   ****     if(body) stack = (uint64 *) s;
  37              		.loc 1 19 5 is_stmt 1
  38 003c 63800506 		beqz	a1,.L2
  39              		.loc 1 19 14 discriminator 1
GAS LISTING /tmp/ccMPtmRV.s 			page 2


  40              		.loc 1 19 20 is_stmt 0 discriminator 1
  41 0040 2338D500 		sd	a3,16(a0)
  42              	.LVL1:
  43              	.L3:
  20:src/TCB.cpp   ****     else {
  21:src/TCB.cpp   ****         stack = nullptr;
  22:src/TCB.cpp   ****         delete[] (uint64 *) s;
  23:src/TCB.cpp   ****     }
  24:src/TCB.cpp   ****     if(stack) context.sp = (uint64) &stack[DEFAULT_STACK_SIZE];
  44              		.loc 1 24 5 is_stmt 1
  45              		.loc 1 24 8 is_stmt 0
  46 0044 83B70401 		ld	a5,16(s1)
  47              		.loc 1 24 5
  48 0048 63860706 		beqz	a5,.L4
  49              		.loc 1 24 15 is_stmt 1 discriminator 1
  50              		.loc 1 24 37 is_stmt 0 discriminator 1
  51 004c 37870000 		li	a4,32768
  52 0050 B387E700 		add	a5,a5,a4
  53              		.loc 1 24 26 discriminator 1
  54 0054 23BCF400 		sd	a5,24(s1)
  55              	.L5:
  25:src/TCB.cpp   ****     else context.sp = 0;
  26:src/TCB.cpp   ****     if(body) context.ra = (uint64) &TCB::threadWrapper;
  56              		.loc 1 26 5 is_stmt 1
  57              		.loc 1 26 8 is_stmt 0
  58 0058 83B70400 		ld	a5,0(s1)
  59              		.loc 1 26 5
  60 005c 63800706 		beqz	a5,.L6
  61              		.loc 1 26 14 is_stmt 1 discriminator 1
  62              		.loc 1 26 25 is_stmt 0 discriminator 1
  63 0060 17070000 		lla	a4,_ZN3TCB13threadWrapperEv
  63      13070700 
  64 0068 23B0E402 		sd	a4,32(s1)
  65              	.L7:
  27:src/TCB.cpp   ****     else context.ra = 0;
  28:src/TCB.cpp   ****     if(body) Scheduler::put(this);
  66              		.loc 1 28 5 is_stmt 1
  67 006c 63880700 		beqz	a5,.L8
  68              		.loc 1 28 14 discriminator 1
  69              		.loc 1 28 28 is_stmt 0 discriminator 1
  70 0070 13850400 		mv	a0,s1
  71 0074 97000000 		call	_ZN9Scheduler3putEP3TCB@plt
  71      E7800000 
  72              	.LVL2:
  73              	.L8:
  29:src/TCB.cpp   ****     userModeThread = userMode;
  74              		.loc 1 29 5 is_stmt 1
  75              		.loc 1 29 20 is_stmt 0
  76 007c 97070000 		lbu	a5,.LANCHOR0
  76      83C70700 
  77 0084 238CF402 		sb	a5,56(s1)
  78              	.LBE23:
  30:src/TCB.cpp   **** }
  79              		.loc 1 30 1
  80 0088 83308101 		ld	ra,24(sp)
  81              		.cfi_remember_state
  82              		.cfi_restore 1
GAS LISTING /tmp/ccMPtmRV.s 			page 3


  83 008c 03340101 		ld	s0,16(sp)
  84              		.cfi_restore 8
  85              		.cfi_def_cfa 2, 32
  86 0090 83348100 		ld	s1,8(sp)
  87              		.cfi_restore 9
  88              	.LVL3:
  89 0094 13010102 		addi	sp,sp,32
  90              		.cfi_def_cfa_offset 0
  91 0098 67800000 		jr	ra
  92              	.LVL4:
  93              	.L2:
  94              		.cfi_restore_state
  95              	.LBB24:
  21:src/TCB.cpp   ****         delete[] (uint64 *) s;
  96              		.loc 1 21 9 is_stmt 1
  21:src/TCB.cpp   ****         delete[] (uint64 *) s;
  97              		.loc 1 21 15 is_stmt 0
  98 009c 23380500 		sd	zero,16(a0)
  22:src/TCB.cpp   ****     }
  99              		.loc 1 22 9 is_stmt 1
  22:src/TCB.cpp   ****     }
 100              		.loc 1 22 30 is_stmt 0
 101 00a0 E38206FA 		beqz	a3,.L3
  22:src/TCB.cpp   ****     }
 102              		.loc 1 22 29 discriminator 1
 103 00a4 13850600 		mv	a0,a3
 104 00a8 97000000 		call	_ZdaPv@plt
 104      E7800000 
 105              	.LVL5:
 106 00b0 6FF05FF9 		j	.L3
 107              	.L4:
  25:src/TCB.cpp   ****     if(body) context.ra = (uint64) &TCB::threadWrapper;
 108              		.loc 1 25 10 is_stmt 1
  25:src/TCB.cpp   ****     if(body) context.ra = (uint64) &TCB::threadWrapper;
 109              		.loc 1 25 21 is_stmt 0
 110 00b4 23BC0400 		sd	zero,24(s1)
 111 00b8 6FF01FFA 		j	.L5
 112              	.L6:
  27:src/TCB.cpp   ****     if(body) Scheduler::put(this);
 113              		.loc 1 27 10 is_stmt 1
  27:src/TCB.cpp   ****     if(body) Scheduler::put(this);
 114              		.loc 1 27 21 is_stmt 0
 115 00bc 23B00402 		sd	zero,32(s1)
 116 00c0 6FF0DFFA 		j	.L7
 117              	.LBE24:
 118              		.cfi_endproc
 119              	.LFE35:
 121              		.globl	_ZN3TCBC1EPFvPvES0_S0_
 122              		.set	_ZN3TCBC1EPFvPvES0_S0_,_ZN3TCBC2EPFvPvES0_S0_
 123              		.align	2
 124              		.globl	_ZN3TCB12createThreadEPPS_PFvPvES2_S2_
 126              	_ZN3TCB12createThreadEPPS_PFvPvES2_S2_:
 127              	.LFB33:
  12:src/TCB.cpp   ****     *handle = new TCB(body, arg, stack);
 128              		.loc 1 12 77 is_stmt 1
 129              		.cfi_startproc
 130              		.cfi_personality 0x9b,DW.ref.__gxx_personality_v0
GAS LISTING /tmp/ccMPtmRV.s 			page 4


 131              		.cfi_lsda 0x1b,.LLSDA33
 132              	.LVL6:
 133 00c4 130101FC 		addi	sp,sp,-64
 134              		.cfi_def_cfa_offset 64
 135 00c8 233C1102 		sd	ra,56(sp)
 136 00cc 23388102 		sd	s0,48(sp)
 137 00d0 23349102 		sd	s1,40(sp)
 138 00d4 23302103 		sd	s2,32(sp)
 139 00d8 233C3101 		sd	s3,24(sp)
 140 00dc 23384101 		sd	s4,16(sp)
 141 00e0 23345101 		sd	s5,8(sp)
 142              		.cfi_offset 1, -8
 143              		.cfi_offset 8, -16
 144              		.cfi_offset 9, -24
 145              		.cfi_offset 18, -32
 146              		.cfi_offset 19, -40
 147              		.cfi_offset 20, -48
 148              		.cfi_offset 21, -56
 149 00e4 13040104 		addi	s0,sp,64
 150              		.cfi_def_cfa 8, 0
 151 00e8 13090500 		mv	s2,a0
 152 00ec 93890500 		mv	s3,a1
 153 00f0 130A0600 		mv	s4,a2
 154 00f4 938A0600 		mv	s5,a3
  13:src/TCB.cpp   ****     if(*handle) return 0;
 155              		.loc 1 13 5
  13:src/TCB.cpp   ****     if(*handle) return 0;
 156              		.loc 1 13 39 is_stmt 0
 157 00f8 13058004 		li	a0,72
 158              	.LVL7:
 159              	.LEHB0:
 160 00fc 97000000 		call	_Znwm@plt
 160      E7800000 
 161              	.LVL8:
 162              	.LEHE0:
 163 0104 93040500 		mv	s1,a0
 164 0108 93860A00 		mv	a3,s5
 165 010c 13060A00 		mv	a2,s4
 166 0110 93850900 		mv	a1,s3
 167              	.LEHB1:
 168 0114 97000000 		call	_ZN3TCBC1EPFvPvES0_S0_
 168      E7800000 
 169              	.LVL9:
 170              	.LEHE1:
  13:src/TCB.cpp   ****     if(*handle) return 0;
 171              		.loc 1 13 13 discriminator 2
 172 011c 23309900 		sd	s1,0(s2)
  14:src/TCB.cpp   ****     else return -1;
 173              		.loc 1 14 5 is_stmt 1 discriminator 2
 174 0120 63860402 		beqz	s1,.L13
  14:src/TCB.cpp   ****     else return -1;
 175              		.loc 1 14 24 is_stmt 0
 176 0124 13050000 		li	a0,0
 177              	.L15:
  16:src/TCB.cpp   **** 
 178              		.loc 1 16 1
 179 0128 83308103 		ld	ra,56(sp)
GAS LISTING /tmp/ccMPtmRV.s 			page 5


 180              		.cfi_remember_state
 181              		.cfi_restore 1
 182 012c 03340103 		ld	s0,48(sp)
 183              		.cfi_restore 8
 184              		.cfi_def_cfa 2, 64
 185 0130 83348102 		ld	s1,40(sp)
 186              		.cfi_restore 9
 187 0134 03390102 		ld	s2,32(sp)
 188              		.cfi_restore 18
 189              	.LVL10:
 190 0138 83398101 		ld	s3,24(sp)
 191              		.cfi_restore 19
 192              	.LVL11:
 193 013c 033A0101 		ld	s4,16(sp)
 194              		.cfi_restore 20
 195              	.LVL12:
 196 0140 833A8100 		ld	s5,8(sp)
 197              		.cfi_restore 21
 198              	.LVL13:
 199 0144 13010104 		addi	sp,sp,64
 200              		.cfi_def_cfa_offset 0
 201 0148 67800000 		jr	ra
 202              	.LVL14:
 203              	.L13:
 204              		.cfi_restore_state
  15:src/TCB.cpp   **** }
 205              		.loc 1 15 18
 206 014c 1305F0FF 		li	a0,-1
 207 0150 6FF09FFD 		j	.L15
 208              	.L14:
 209 0154 13090500 		mv	s2,a0
 210              	.LVL15:
  13:src/TCB.cpp   ****     if(*handle) return 0;
 211              		.loc 1 13 39
 212 0158 13850400 		mv	a0,s1
 213 015c 97000000 		call	_ZdlPv@plt
 213      E7800000 
 214              	.LVL16:
 215 0164 13050900 		mv	a0,s2
 216              	.LEHB2:
 217 0168 97000000 		call	_Unwind_Resume@plt
 217      E7800000 
 218              	.LVL17:
 219              	.LEHE2:
 220              		.cfi_endproc
 221              	.LFE33:
 222              		.globl	__gxx_personality_v0
 223              		.section	.gcc_except_table,"a",@progbits
 224              	.LLSDA33:
 225 0000 FF       		.byte	0xff
 226 0001 FF       		.byte	0xff
 227 0002 03       		.byte	0x3
 228 0003 27       		.byte	0x27
 229 0004 00000000 		.4byte	.LEHB0-.LFB33
 230 0008 00000000 		.4byte	.LEHE0-.LEHB0
 231 000c 00000000 		.4byte	0
 232 0010 00       		.byte	0
GAS LISTING /tmp/ccMPtmRV.s 			page 6


 233 0011 00000000 		.4byte	.LEHB1-.LFB33
 234 0015 00000000 		.4byte	.LEHE1-.LEHB1
 235 0019 00000000 		.4byte	.L14-.LFB33
 236 001d 00       		.byte	0
 237 001e 00000000 		.4byte	.LEHB2-.LFB33
 238 0022 00000000 		.4byte	.LEHE2-.LEHB2
 239 0026 00000000 		.4byte	0
 240 002a 00       		.byte	0
 241              		.text
 243              		.align	2
 244              		.globl	_ZN3TCB8dispatchEv
 246              	_ZN3TCB8dispatchEv:
 247              	.LFB41:
  31:src/TCB.cpp   **** 
  32:src/TCB.cpp   **** TCB::~TCB() {
  33:src/TCB.cpp   ****     delete[] stack;
  34:src/TCB.cpp   ****     waitList();
  35:src/TCB.cpp   **** }
  36:src/TCB.cpp   **** 
  37:src/TCB.cpp   **** void TCB::yield() {
  38:src/TCB.cpp   ****     pushRegisters();
  39:src/TCB.cpp   ****     TCB::dispatch();
  40:src/TCB.cpp   ****     popRegisters();
  41:src/TCB.cpp   **** }
  42:src/TCB.cpp   **** 
  43:src/TCB.cpp   **** void TCB::dispatch() {
 248              		.loc 1 43 22 is_stmt 1
 249              		.cfi_startproc
 250 0170 130101FE 		addi	sp,sp,-32
 251              		.cfi_def_cfa_offset 32
 252 0174 233C1100 		sd	ra,24(sp)
 253 0178 23388100 		sd	s0,16(sp)
 254 017c 23349100 		sd	s1,8(sp)
 255              		.cfi_offset 1, -8
 256              		.cfi_offset 8, -16
 257              		.cfi_offset 9, -24
 258 0180 13040102 		addi	s0,sp,32
 259              		.cfi_def_cfa 8, 0
  44:src/TCB.cpp   ****     TCB *old = TCB::running;
 260              		.loc 1 44 5
 261              		.loc 1 44 10 is_stmt 0
 262 0184 97040000 		ld	s1,.LANCHOR0+8
 262      83B40400 
 263              	.LVL18:
  45:src/TCB.cpp   ****     if(!old->isFinished() && !old->isJoined() && !old->isBlocked() && !old->isSleeping()) { Schedul
 264              		.loc 1 45 5 is_stmt 1
 265              	.LBB25:
 266              	.LBB26:
 267              		.file 2 "src/../h/TCB.hpp"
   1:src/../h/TCB.hpp **** #ifndef PROJECT_BASE_TCB_HPP
   2:src/../h/TCB.hpp **** #define PROJECT_BASE_TCB_HPP
   3:src/../h/TCB.hpp **** 
   4:src/../h/TCB.hpp **** #include "../lib/hw.h"
   5:src/../h/TCB.hpp **** #include "../h/Scheduler.hpp"
   6:src/../h/TCB.hpp **** #include "../h/Sleeping.hpp"
   7:src/../h/TCB.hpp **** 
   8:src/../h/TCB.hpp **** class TCB {
GAS LISTING /tmp/ccMPtmRV.s 			page 7


   9:src/../h/TCB.hpp **** public:
  10:src/../h/TCB.hpp ****     friend class Sem;
  11:src/../h/TCB.hpp ****     using Body = void (*)(void*);
  12:src/../h/TCB.hpp **** 
  13:src/../h/TCB.hpp ****     static int createThread(TCB **handle, Body body, void *arg, void *stack);
  14:src/../h/TCB.hpp ****     ~TCB();
  15:src/../h/TCB.hpp ****     static void yield();
  16:src/../h/TCB.hpp ****     static void dispatch();
  17:src/../h/TCB.hpp ****     static void join(TCB *handle);
  18:src/../h/TCB.hpp ****     void waitList();
  19:src/../h/TCB.hpp ****     static int sleep(time_t time);
  20:src/../h/TCB.hpp **** 
  21:src/../h/TCB.hpp ****     static TCB *running;
  22:src/../h/TCB.hpp **** 
  23:src/../h/TCB.hpp ****     bool isFinished() const { return finished; }
 268              		.loc 2 23 31
 269              		.loc 2 23 38 is_stmt 0
 270 018c 83C78402 		lbu	a5,40(s1)
 271              	.LVL19:
 272              	.LBE26:
 273              	.LBE25:
 274              		.loc 1 45 68
 275 0190 639E0700 		bnez	a5,.L18
 276              	.LVL20:
 277              	.LBB27:
 278              	.LBB28:
  24:src/../h/TCB.hpp ****     void setFinished(bool f) { finished = f; }
  25:src/../h/TCB.hpp ****     bool isJoined() const { return joined; }
 279              		.loc 2 25 29 is_stmt 1
 280              		.loc 2 25 36 is_stmt 0
 281 0194 83C79402 		lbu	a5,41(s1)
 282              	.LVL21:
 283              	.LBE28:
 284              	.LBE27:
 285              		.loc 1 45 27
 286 0198 639A0700 		bnez	a5,.L18
 287              	.LVL22:
 288              	.LBB29:
 289              	.LBB30:
  26:src/../h/TCB.hpp ****     void setJoined(bool b) { joined = b; }
  27:src/../h/TCB.hpp ****     bool isBlocked() const { return blocked; }
 290              		.loc 2 27 30 is_stmt 1
 291              		.loc 2 27 37 is_stmt 0
 292 019c 83C7A402 		lbu	a5,42(s1)
 293              	.LVL23:
 294              	.LBE30:
 295              	.LBE29:
 296              		.loc 1 45 47
 297 01a0 63960700 		bnez	a5,.L18
 298              	.LVL24:
 299              	.LBB31:
 300              	.LBB32:
  28:src/../h/TCB.hpp ****     void setBlocked(bool b) { blocked = b; }
  29:src/../h/TCB.hpp ****     bool isSleeping() const { return sleeping; }
 301              		.loc 2 29 31 is_stmt 1
 302              		.loc 2 29 38 is_stmt 0
 303 01a4 83C7B402 		lbu	a5,43(s1)
GAS LISTING /tmp/ccMPtmRV.s 			page 8


 304              	.LVL25:
 305              	.LBE32:
 306              	.LBE31:
 307              		.loc 1 45 68
 308 01a8 638E0702 		beqz	a5,.L21
 309              	.L18:
  46:src/TCB.cpp   ****     TCB::running = Scheduler::get();
 310              		.loc 1 46 5 is_stmt 1
 311              		.loc 1 46 34 is_stmt 0
 312 01ac 97000000 		call	_ZN9Scheduler3getEv@plt
 312      E7800000 
 313              	.LVL26:
 314              		.loc 1 46 18
 315 01b4 97070000 		sd	a0,.LANCHOR0+8,a5
 315      23B0A700 
  47:src/TCB.cpp   ****     if(old != TCB::running) contextSwitch(&old->context, &TCB::running->context);
 316              		.loc 1 47 5 is_stmt 1
 317 01bc 638AA400 		beq	s1,a0,.L17
 318              		.loc 1 47 29 discriminator 1
 319              		.loc 1 47 42 is_stmt 0 discriminator 1
 320 01c0 93058501 		addi	a1,a0,24
 321 01c4 13858401 		addi	a0,s1,24
 322 01c8 97000000 		call	contextSwitch@plt
 322      E7800000 
 323              	.LVL27:
 324              	.L17:
  48:src/TCB.cpp   **** }
 325              		.loc 1 48 1
 326 01d0 83308101 		ld	ra,24(sp)
 327              		.cfi_remember_state
 328              		.cfi_restore 1
 329 01d4 03340101 		ld	s0,16(sp)
 330              		.cfi_restore 8
 331              		.cfi_def_cfa 2, 32
 332 01d8 83348100 		ld	s1,8(sp)
 333              		.cfi_restore 9
 334              	.LVL28:
 335 01dc 13010102 		addi	sp,sp,32
 336              		.cfi_def_cfa_offset 0
 337 01e0 67800000 		jr	ra
 338              	.LVL29:
 339              	.L21:
 340              		.cfi_restore_state
  45:src/TCB.cpp   ****     TCB::running = Scheduler::get();
 341              		.loc 1 45 93 is_stmt 1
  45:src/TCB.cpp   ****     TCB::running = Scheduler::get();
 342              		.loc 1 45 107 is_stmt 0
 343 01e4 13850400 		mv	a0,s1
 344 01e8 97000000 		call	_ZN9Scheduler3putEP3TCB@plt
 344      E7800000 
 345              	.LVL30:
 346 01f0 6FF0DFFB 		j	.L18
 347              		.cfi_endproc
 348              	.LFE41:
 350              		.align	2
 351              		.globl	_ZN3TCB5yieldEv
 353              	_ZN3TCB5yieldEv:
GAS LISTING /tmp/ccMPtmRV.s 			page 9


 354              	.LFB40:
  37:src/TCB.cpp   ****     pushRegisters();
 355              		.loc 1 37 19 is_stmt 1
 356              		.cfi_startproc
 357 01f4 130101FF 		addi	sp,sp,-16
 358              		.cfi_def_cfa_offset 16
 359 01f8 23341100 		sd	ra,8(sp)
 360 01fc 23308100 		sd	s0,0(sp)
 361              		.cfi_offset 1, -8
 362              		.cfi_offset 8, -16
 363 0200 13040101 		addi	s0,sp,16
 364              		.cfi_def_cfa 8, 0
  38:src/TCB.cpp   ****     TCB::dispatch();
 365              		.loc 1 38 5
  38:src/TCB.cpp   ****     TCB::dispatch();
 366              		.loc 1 38 18 is_stmt 0
 367 0204 97000000 		call	pushRegisters@plt
 367      E7800000 
 368              	.LVL31:
  39:src/TCB.cpp   ****     popRegisters();
 369              		.loc 1 39 5 is_stmt 1
  39:src/TCB.cpp   ****     popRegisters();
 370              		.loc 1 39 18 is_stmt 0
 371 020c 97000000 		call	_ZN3TCB8dispatchEv
 371      E7800000 
 372              	.LVL32:
  40:src/TCB.cpp   **** }
 373              		.loc 1 40 5 is_stmt 1
  40:src/TCB.cpp   **** }
 374              		.loc 1 40 17 is_stmt 0
 375 0214 97000000 		call	popRegisters@plt
 375      E7800000 
 376              	.LVL33:
  41:src/TCB.cpp   **** 
 377              		.loc 1 41 1
 378 021c 83308100 		ld	ra,8(sp)
 379              		.cfi_restore 1
 380 0220 03340100 		ld	s0,0(sp)
 381              		.cfi_restore 8
 382              		.cfi_def_cfa 2, 16
 383 0224 13010101 		addi	sp,sp,16
 384              		.cfi_def_cfa_offset 0
 385 0228 67800000 		jr	ra
 386              		.cfi_endproc
 387              	.LFE40:
 389              		.align	2
 390              		.globl	_ZN3TCB4joinEPS_
 392              	_ZN3TCB4joinEPS_:
 393              	.LFB42:
  49:src/TCB.cpp   **** 
  50:src/TCB.cpp   **** void TCB::join(TCB *handle) {
 394              		.loc 1 50 29 is_stmt 1
 395              		.cfi_startproc
 396              	.LVL34:
  51:src/TCB.cpp   ****     if(handle->isFinished()) return;
 397              		.loc 1 51 5
 398              	.LBB33:
GAS LISTING /tmp/ccMPtmRV.s 			page 10


 399              	.LBB34:
  23:src/../h/TCB.hpp ****     void setFinished(bool f) { finished = f; }
 400              		.loc 2 23 31
  23:src/../h/TCB.hpp ****     void setFinished(bool f) { finished = f; }
 401              		.loc 2 23 38 is_stmt 0
 402 022c 83478502 		lbu	a5,40(a0)
 403              	.LVL35:
 404              	.LBE34:
 405              	.LBE33:
 406              		.loc 1 51 5
 407 0230 63840700 		beqz	a5,.L32
 408 0234 67800000 		ret
 409              	.L32:
  50:src/TCB.cpp   ****     if(handle->isFinished()) return;
 410              		.loc 1 50 29
 411 0238 130101FE 		addi	sp,sp,-32
 412              		.cfi_def_cfa_offset 32
 413 023c 233C1100 		sd	ra,24(sp)
 414 0240 23388100 		sd	s0,16(sp)
 415 0244 23349100 		sd	s1,8(sp)
 416 0248 23302101 		sd	s2,0(sp)
 417              		.cfi_offset 1, -8
 418              		.cfi_offset 8, -16
 419              		.cfi_offset 9, -24
 420              		.cfi_offset 18, -32
 421 024c 13040102 		addi	s0,sp,32
 422              		.cfi_def_cfa 8, 0
 423 0250 93040500 		mv	s1,a0
  52:src/TCB.cpp   ****     TCB::running->setJoined(true);
 424              		.loc 1 52 5 is_stmt 1
 425              		.loc 1 52 28 is_stmt 0
 426 0254 17090000 		lla	s2,.LANCHOR0
 426      13090900 
 427 025c 83378900 		ld	a5,8(s2)
 428              	.LVL36:
 429              	.LBB35:
 430              	.LBB36:
  26:src/../h/TCB.hpp ****     bool isBlocked() const { return blocked; }
 431              		.loc 2 26 30 is_stmt 1
  26:src/../h/TCB.hpp ****     bool isBlocked() const { return blocked; }
 432              		.loc 2 26 37 is_stmt 0
 433 0260 13071000 		li	a4,1
 434 0264 A384E702 		sb	a4,41(a5)
 435              	.LVL37:
 436              	.LBE36:
 437              	.LBE35:
  53:src/TCB.cpp   **** 
  54:src/TCB.cpp   ****     Elem *newElem = new Elem(TCB::running, nullptr);
 438              		.loc 1 54 5 is_stmt 1
 439              		.loc 1 54 51 is_stmt 0
 440 0268 13050001 		li	a0,16
 441              	.LVL38:
 442 026c 97000000 		call	_Znwm@plt
 442      E7800000 
 443              	.LVL39:
 444 0274 83378900 		ld	a5,8(s2)
 445              	.LVL40:
GAS LISTING /tmp/ccMPtmRV.s 			page 11


 446              	.LBB37:
 447              	.LBB38:
  30:src/../h/TCB.hpp ****     void setSleeping(bool b) { sleeping = b; }
  31:src/../h/TCB.hpp ****     uint64 getTimeSlice() const { return timeSlice; }
  32:src/../h/TCB.hpp **** 
  33:src/../h/TCB.hpp ****     struct Context {
  34:src/../h/TCB.hpp ****         uint64 sp;
  35:src/../h/TCB.hpp ****         uint64 ra;
  36:src/../h/TCB.hpp ****     };
  37:src/../h/TCB.hpp **** 
  38:src/../h/TCB.hpp ****     static uint64 timeSliceCounter;
  39:src/../h/TCB.hpp ****     static bool userMode;
  40:src/../h/TCB.hpp **** private:
  41:src/../h/TCB.hpp ****     Body body;
  42:src/../h/TCB.hpp ****     void *arg;
  43:src/../h/TCB.hpp ****     uint64 *stack;
  44:src/../h/TCB.hpp ****     Context context;
  45:src/../h/TCB.hpp ****     bool finished = false;
  46:src/../h/TCB.hpp ****     bool joined = false;
  47:src/../h/TCB.hpp ****     bool blocked = false;
  48:src/../h/TCB.hpp ****     bool sleeping = false;
  49:src/../h/TCB.hpp ****     uint64 timeSlice = DEFAULT_TIME_SLICE;
  50:src/../h/TCB.hpp ****     bool userModeThread;
  51:src/../h/TCB.hpp **** 
  52:src/../h/TCB.hpp ****     struct Elem {
  53:src/../h/TCB.hpp ****         TCB *thread;
  54:src/../h/TCB.hpp ****         Elem *next = nullptr;
  55:src/../h/TCB.hpp ****         Elem(TCB *p, Elem *n) : thread(p), next(n) {}
 448              		.loc 2 55 50
 449 0278 2330F500 		sd	a5,0(a0)
 450 027c 23340500 		sd	zero,8(a0)
 451              	.LVL41:
 452              	.LBE38:
 453              	.LBE37:
  55:src/TCB.cpp   ****     if(!handle->headWaitList) { handle->headWaitList = newElem; }
 454              		.loc 1 55 5 is_stmt 1
 455              		.loc 1 55 17 is_stmt 0
 456 0280 83B70404 		ld	a5,64(s1)
 457              		.loc 1 55 5
 458 0284 63860702 		beqz	a5,.L33
  56:src/TCB.cpp   ****     else {
  57:src/TCB.cpp   ****         newElem->next = handle->headWaitList;
 459              		.loc 1 57 9 is_stmt 1
 460              		.loc 1 57 23 is_stmt 0
 461 0288 2334F500 		sd	a5,8(a0)
  58:src/TCB.cpp   ****         handle->headWaitList = newElem;
 462              		.loc 1 58 9 is_stmt 1
 463              		.loc 1 58 30 is_stmt 0
 464 028c 23B0A404 		sd	a0,64(s1)
 465              	.L27:
  59:src/TCB.cpp   ****     }
  60:src/TCB.cpp   **** 
  61:src/TCB.cpp   ****     TCB::yield();
 466              		.loc 1 61 5 is_stmt 1
 467              		.loc 1 61 15 is_stmt 0
 468 0290 97000000 		call	_ZN3TCB5yieldEv
 468      E7800000 
GAS LISTING /tmp/ccMPtmRV.s 			page 12


 469              	.LVL42:
  62:src/TCB.cpp   **** }
 470              		.loc 1 62 1
 471 0298 83308101 		ld	ra,24(sp)
 472              		.cfi_remember_state
 473              		.cfi_restore 1
 474 029c 03340101 		ld	s0,16(sp)
 475              		.cfi_restore 8
 476              		.cfi_def_cfa 2, 32
 477 02a0 83348100 		ld	s1,8(sp)
 478              		.cfi_restore 9
 479              	.LVL43:
 480 02a4 03390100 		ld	s2,0(sp)
 481              		.cfi_restore 18
 482 02a8 13010102 		addi	sp,sp,32
 483              		.cfi_def_cfa_offset 0
 484 02ac 67800000 		jr	ra
 485              	.LVL44:
 486              	.L33:
 487              		.cfi_restore_state
  55:src/TCB.cpp   ****     else {
 488              		.loc 1 55 33 is_stmt 1 discriminator 1
  55:src/TCB.cpp   ****     else {
 489              		.loc 1 55 54 is_stmt 0 discriminator 1
 490 02b0 23B0A404 		sd	a0,64(s1)
 491 02b4 6FF0DFFD 		j	.L27
 492              		.cfi_endproc
 493              	.LFE42:
 495              		.align	2
 496              		.globl	_ZN3TCB8waitListEv
 498              	_ZN3TCB8waitListEv:
 499              	.LFB43:
  63:src/TCB.cpp   **** 
  64:src/TCB.cpp   **** void TCB::waitList() {
 500              		.loc 1 64 22 is_stmt 1
 501              		.cfi_startproc
 502              	.LVL45:
 503 02b8 130101FE 		addi	sp,sp,-32
 504              		.cfi_def_cfa_offset 32
 505 02bc 233C1100 		sd	ra,24(sp)
 506 02c0 23388100 		sd	s0,16(sp)
 507 02c4 23349100 		sd	s1,8(sp)
 508              		.cfi_offset 1, -8
 509              		.cfi_offset 8, -16
 510              		.cfi_offset 9, -24
 511 02c8 13040102 		addi	s0,sp,32
 512              		.cfi_def_cfa 8, 0
 513 02cc 93040500 		mv	s1,a0
 514              	.LVL46:
 515              	.L36:
  65:src/TCB.cpp   ****     Elem *prev;
 516              		.loc 1 65 5
  66:src/TCB.cpp   ****     while(headWaitList) {
 517              		.loc 1 66 5
 518              		.loc 1 66 11
 519 02d0 83B70404 		ld	a5,64(s1)
 520 02d4 638C0702 		beqz	a5,.L34
GAS LISTING /tmp/ccMPtmRV.s 			page 13


  67:src/TCB.cpp   ****         Scheduler::put(headWaitList->thread);
 521              		.loc 1 67 9
 522              		.loc 1 67 23 is_stmt 0
 523 02d8 03B50700 		ld	a0,0(a5)
 524 02dc 97000000 		call	_ZN9Scheduler3putEP3TCB@plt
 524      E7800000 
 525              	.LVL47:
  68:src/TCB.cpp   ****         headWaitList->thread->setJoined(false);
 526              		.loc 1 68 9 is_stmt 1
 527 02e4 83B70404 		ld	a5,64(s1)
 528              		.loc 1 68 23 is_stmt 0
 529 02e8 83B70700 		ld	a5,0(a5)
 530              	.LVL48:
 531              	.LBB39:
 532              	.LBB40:
  26:src/../h/TCB.hpp ****     bool isBlocked() const { return blocked; }
 533              		.loc 2 26 30 is_stmt 1
  26:src/../h/TCB.hpp ****     bool isBlocked() const { return blocked; }
 534              		.loc 2 26 37 is_stmt 0
 535 02ec A3840702 		sb	zero,41(a5)
 536              	.LVL49:
 537              	.LBE40:
 538              	.LBE39:
  69:src/TCB.cpp   ****         prev = headWaitList;
 539              		.loc 1 69 9 is_stmt 1
 540              		.loc 1 69 14 is_stmt 0
 541 02f0 03B50404 		ld	a0,64(s1)
 542              	.LVL50:
  70:src/TCB.cpp   ****         headWaitList = headWaitList->next;
 543              		.loc 1 70 9 is_stmt 1
 544              		.loc 1 70 38 is_stmt 0
 545 02f4 83378500 		ld	a5,8(a0)
 546              		.loc 1 70 22
 547 02f8 23B0F404 		sd	a5,64(s1)
  71:src/TCB.cpp   ****         delete prev;
 548              		.loc 1 71 9 is_stmt 1
 549              		.loc 1 71 20 is_stmt 0
 550 02fc E30A05FC 		beqz	a0,.L36
 551              		.loc 1 71 16 discriminator 1
 552 0300 97000000 		call	_ZdlPv@plt
 552      E7800000 
 553              	.LVL51:
 554 0308 6FF09FFC 		j	.L36
 555              	.L34:
  72:src/TCB.cpp   ****     }
  73:src/TCB.cpp   **** }
 556              		.loc 1 73 1
 557 030c 83308101 		ld	ra,24(sp)
 558              		.cfi_restore 1
 559 0310 03340101 		ld	s0,16(sp)
 560              		.cfi_restore 8
 561              		.cfi_def_cfa 2, 32
 562 0314 83348100 		ld	s1,8(sp)
 563              		.cfi_restore 9
 564              	.LVL52:
 565 0318 13010102 		addi	sp,sp,32
 566              		.cfi_def_cfa_offset 0
GAS LISTING /tmp/ccMPtmRV.s 			page 14


 567 031c 67800000 		jr	ra
 568              		.cfi_endproc
 569              	.LFE43:
 571              		.align	2
 572              		.globl	_ZN3TCBD2Ev
 574              	_ZN3TCBD2Ev:
 575              	.LFB38:
  32:src/TCB.cpp   ****     delete[] stack;
 576              		.loc 1 32 1 is_stmt 1
 577              		.cfi_startproc
 578              		.cfi_personality 0x9b,DW.ref.__gxx_personality_v0
 579              		.cfi_lsda 0x1b,.LLSDA38
 580              	.LVL53:
 581 0320 130101FE 		addi	sp,sp,-32
 582              		.cfi_def_cfa_offset 32
 583 0324 233C1100 		sd	ra,24(sp)
 584 0328 23388100 		sd	s0,16(sp)
 585 032c 23349100 		sd	s1,8(sp)
 586              		.cfi_offset 1, -8
 587              		.cfi_offset 8, -16
 588              		.cfi_offset 9, -24
 589 0330 13040102 		addi	s0,sp,32
 590              		.cfi_def_cfa 8, 0
 591 0334 93040500 		mv	s1,a0
 592              	.LBB41:
  33:src/TCB.cpp   ****     waitList();
 593              		.loc 1 33 5
  33:src/TCB.cpp   ****     waitList();
 594              		.loc 1 33 14 is_stmt 0
 595 0338 03350501 		ld	a0,16(a0)
 596              	.LVL54:
  33:src/TCB.cpp   ****     waitList();
 597              		.loc 1 33 19
 598 033c 63060500 		beqz	a0,.L40
  33:src/TCB.cpp   ****     waitList();
 599              		.loc 1 33 14 discriminator 1
 600 0340 97000000 		call	_ZdaPv@plt
 600      E7800000 
 601              	.LVL55:
 602              	.L40:
  34:src/TCB.cpp   **** }
 603              		.loc 1 34 5 is_stmt 1
  34:src/TCB.cpp   **** }
 604              		.loc 1 34 13 is_stmt 0
 605 0348 13850400 		mv	a0,s1
 606 034c 97000000 		call	_ZN3TCB8waitListEv
 606      E7800000 
 607              	.LVL56:
 608              	.LBE41:
  35:src/TCB.cpp   **** 
 609              		.loc 1 35 1
 610 0354 83308101 		ld	ra,24(sp)
 611              		.cfi_restore 1
 612 0358 03340101 		ld	s0,16(sp)
 613              		.cfi_restore 8
 614              		.cfi_def_cfa 2, 32
 615 035c 83348100 		ld	s1,8(sp)
GAS LISTING /tmp/ccMPtmRV.s 			page 15


 616              		.cfi_restore 9
 617              	.LVL57:
 618 0360 13010102 		addi	sp,sp,32
 619              		.cfi_def_cfa_offset 0
 620 0364 67800000 		jr	ra
 621              		.cfi_endproc
 622              	.LFE38:
 623              		.section	.gcc_except_table
 624              	.LLSDA38:
 625 002b FF       		.byte	0xff
 626 002c FF       		.byte	0xff
 627 002d 03       		.byte	0x3
 628 002e 00       		.byte	0
 629              		.text
 631              		.globl	_ZN3TCBD1Ev
 632              		.set	_ZN3TCBD1Ev,_ZN3TCBD2Ev
 633              		.align	2
 634              		.globl	_ZN3TCB5sleepEm
 636              	_ZN3TCB5sleepEm:
 637              	.LFB44:
  74:src/TCB.cpp   **** 
  75:src/TCB.cpp   **** int TCB::sleep(time_t time) {
 638              		.loc 1 75 29 is_stmt 1
 639              		.cfi_startproc
 640              	.LVL58:
  76:src/TCB.cpp   ****     if(!time) return 0;
 641              		.loc 1 76 5
 642 0368 63160500 		bnez	a0,.L48
  77:src/TCB.cpp   ****     Sleeping::put(TCB::running, time);
  78:src/TCB.cpp   ****     TCB::running->setSleeping(true);
  79:src/TCB.cpp   ****     TCB::yield();
  80:src/TCB.cpp   ****     return 0;
  81:src/TCB.cpp   **** }
 643              		.loc 1 81 1 is_stmt 0
 644 036c 13050000 		li	a0,0
 645              	.LVL59:
 646 0370 67800000 		ret
 647              	.LVL60:
 648              	.L48:
  75:src/TCB.cpp   ****     if(!time) return 0;
 649              		.loc 1 75 29
 650 0374 130101FE 		addi	sp,sp,-32
 651              		.cfi_def_cfa_offset 32
 652 0378 233C1100 		sd	ra,24(sp)
 653 037c 23388100 		sd	s0,16(sp)
 654 0380 23349100 		sd	s1,8(sp)
 655              		.cfi_offset 1, -8
 656              		.cfi_offset 8, -16
 657              		.cfi_offset 9, -24
 658 0384 13040102 		addi	s0,sp,32
 659              		.cfi_def_cfa 8, 0
  77:src/TCB.cpp   ****     Sleeping::put(TCB::running, time);
 660              		.loc 1 77 5 is_stmt 1
  77:src/TCB.cpp   ****     Sleeping::put(TCB::running, time);
 661              		.loc 1 77 18 is_stmt 0
 662 0388 97040000 		lla	s1,.LANCHOR0
 662      93840400 
GAS LISTING /tmp/ccMPtmRV.s 			page 16


 663 0390 93050500 		mv	a1,a0
 664 0394 03B58400 		ld	a0,8(s1)
 665              	.LVL61:
 666 0398 97000000 		call	_ZN8Sleeping3putEP3TCBm@plt
 666      E7800000 
 667              	.LVL62:
  78:src/TCB.cpp   ****     TCB::yield();
 668              		.loc 1 78 5 is_stmt 1
  78:src/TCB.cpp   ****     TCB::yield();
 669              		.loc 1 78 30 is_stmt 0
 670 03a0 83B78400 		ld	a5,8(s1)
 671              	.LVL63:
 672              	.LBB42:
 673              	.LBB43:
  30:src/../h/TCB.hpp ****     uint64 getTimeSlice() const { return timeSlice; }
 674              		.loc 2 30 32 is_stmt 1
  30:src/../h/TCB.hpp ****     uint64 getTimeSlice() const { return timeSlice; }
 675              		.loc 2 30 41 is_stmt 0
 676 03a4 13071000 		li	a4,1
 677 03a8 A385E702 		sb	a4,43(a5)
 678              	.LVL64:
 679              	.LBE43:
 680              	.LBE42:
  79:src/TCB.cpp   ****     return 0;
 681              		.loc 1 79 5 is_stmt 1
  79:src/TCB.cpp   ****     return 0;
 682              		.loc 1 79 15 is_stmt 0
 683 03ac 97000000 		call	_ZN3TCB5yieldEv
 683      E7800000 
 684              	.LVL65:
  80:src/TCB.cpp   **** }
 685              		.loc 1 80 5 is_stmt 1
 686              		.loc 1 81 1 is_stmt 0
 687 03b4 13050000 		li	a0,0
 688 03b8 83308101 		ld	ra,24(sp)
 689              		.cfi_restore 1
 690 03bc 03340101 		ld	s0,16(sp)
 691              		.cfi_restore 8
 692              		.cfi_def_cfa 2, 32
 693 03c0 83348100 		ld	s1,8(sp)
 694              		.cfi_restore 9
 695 03c4 13010102 		addi	sp,sp,32
 696              		.cfi_def_cfa_offset 0
 697 03c8 67800000 		jr	ra
 698              		.cfi_endproc
 699              	.LFE44:
 701              		.align	2
 702              		.globl	_ZN3TCB10popSppSpieEv
 704              	_ZN3TCB10popSppSpieEv:
 705              	.LFB45:
  82:src/TCB.cpp   **** 
  83:src/TCB.cpp   **** void TCB::popSppSpie() {
 706              		.loc 1 83 24 is_stmt 1
 707              		.cfi_startproc
 708 03cc 130101FF 		addi	sp,sp,-16
 709              		.cfi_def_cfa_offset 16
 710 03d0 23348100 		sd	s0,8(sp)
GAS LISTING /tmp/ccMPtmRV.s 			page 17


 711              		.cfi_offset 8, -8
 712 03d4 13040101 		addi	s0,sp,16
 713              		.cfi_def_cfa 8, 0
  84:src/TCB.cpp   ****     __asm__ volatile("csrw sepc, ra");
 714              		.loc 1 84 5
 715              		.loc 1 84 38 is_stmt 0
 716              	#APP
 717              	# 84 "src/TCB.cpp" 1
  85              	    int maskSPIE = 1 << 5;
 718              		csrw sepc, ra
 719              	# 0 "" 2
 720              		.loc 1 85 5 is_stmt 1
 721              	.LVL66:
  86:src/TCB.cpp   ****     __asm__ volatile("csrs sstatus, %0" : :  "r"(maskSPIE));
 722              		.loc 1 86 5
 723              		.loc 1 86 60 is_stmt 0
 724              	#NO_APP
 725 03dc 93070002 		li	a5,32
 726              	#APP
 727              	# 86 "src/TCB.cpp" 1
  87              	    int maskSPP = 1 << 8;
 728              		csrs sstatus, a5
 729              	# 0 "" 2
 730              		.loc 1 87 5 is_stmt 1
 731              	.LVL67:
  88:src/TCB.cpp   ****     if(TCB::running->userModeThread) __asm__ volatile("csrc sstatus, %0" : :  "r"(maskSPP));
 732              		.loc 1 88 5
 733              		.loc 1 88 22 is_stmt 0
 734              	#NO_APP
 735 03e4 97070000 		ld	a5,.LANCHOR0+8
 735      83B70700 
 736 03ec 83C78703 		lbu	a5,56(a5)
 737              		.loc 1 88 5
 738 03f0 638E0700 		beqz	a5,.L50
 739              		.loc 1 88 38 is_stmt 1 discriminator 1
 740              		.loc 1 88 92 is_stmt 0 discriminator 1
 741 03f4 93070010 		li	a5,256
 742              	#APP
 743              	# 88 "src/TCB.cpp" 1
  89              	    else __asm__ volatile("csrs sstatus, %0" : :  "r"(maskSPP));
 744              		csrc sstatus, a5
 745              	# 0 "" 2
 746              	#NO_APP
 747              	.L51:
  90:src/TCB.cpp   ****     __asm__ volatile("sret");
 748              		.loc 1 90 5 is_stmt 1
 749              		.loc 1 90 29 is_stmt 0
 750              	#APP
 751              	# 90 "src/TCB.cpp" 1
  91              	}
 752              		sret
 753              	# 0 "" 2
 754              		.loc 1 91 1
 755              	#NO_APP
 756 0400 03348100 		ld	s0,8(sp)
 757              		.cfi_remember_state
 758              		.cfi_restore 8
GAS LISTING /tmp/ccMPtmRV.s 			page 18


 759              		.cfi_def_cfa 2, 16
 760 0404 13010101 		addi	sp,sp,16
 761              		.cfi_def_cfa_offset 0
 762 0408 67800000 		jr	ra
 763              	.L50:
 764              		.cfi_restore_state
  89:src/TCB.cpp   ****     __asm__ volatile("sret");
 765              		.loc 1 89 10 is_stmt 1
  89:src/TCB.cpp   ****     __asm__ volatile("sret");
 766              		.loc 1 89 64 is_stmt 0
 767 040c 93070010 		li	a5,256
 768              	#APP
 769              	# 89 "src/TCB.cpp" 1
 770              		csrs sstatus, a5
 771              	# 0 "" 2
 772              	#NO_APP
 773 0414 6FF09FFE 		j	.L51
 774              		.cfi_endproc
 775              	.LFE45:
 777              		.align	2
 778              		.globl	_ZN3TCB13threadWrapperEv
 780              	_ZN3TCB13threadWrapperEv:
 781              	.LFB46:
  92:src/TCB.cpp   **** 
  93:src/TCB.cpp   **** void TCB::threadWrapper() {
 782              		.loc 1 93 27 is_stmt 1
 783              		.cfi_startproc
 784 0418 130101FE 		addi	sp,sp,-32
 785              		.cfi_def_cfa_offset 32
 786 041c 233C1100 		sd	ra,24(sp)
 787 0420 23388100 		sd	s0,16(sp)
 788 0424 23349100 		sd	s1,8(sp)
 789              		.cfi_offset 1, -8
 790              		.cfi_offset 8, -16
 791              		.cfi_offset 9, -24
 792 0428 13040102 		addi	s0,sp,32
 793              		.cfi_def_cfa 8, 0
  94:src/TCB.cpp   ****     TCB::popSppSpie();
 794              		.loc 1 94 5
 795              		.loc 1 94 20 is_stmt 0
 796 042c 97000000 		call	_ZN3TCB10popSppSpieEv
 796      E7800000 
 797              	.LVL68:
  95:src/TCB.cpp   ****     TCB::running->body(TCB::running->arg);
 798              		.loc 1 95 5 is_stmt 1
 799              		.loc 1 95 19 is_stmt 0
 800 0434 97040000 		lla	s1,.LANCHOR0
 800      93840400 
 801 043c 83B78400 		ld	a5,8(s1)
 802 0440 03B70700 		ld	a4,0(a5)
 803              		.loc 1 95 23
 804 0444 03B58700 		ld	a0,8(a5)
 805 0448 E7000700 		jalr	a4
 806              	.LVL69:
  96:src/TCB.cpp   ****     TCB::running->setFinished(true);
 807              		.loc 1 96 5 is_stmt 1
 808              		.loc 1 96 30 is_stmt 0
GAS LISTING /tmp/ccMPtmRV.s 			page 19


 809 044c 03B58400 		ld	a0,8(s1)
 810              	.LVL70:
 811              	.LBB44:
 812              	.LBB45:
  24:src/../h/TCB.hpp ****     bool isJoined() const { return joined; }
 813              		.loc 2 24 32 is_stmt 1
  24:src/../h/TCB.hpp ****     bool isJoined() const { return joined; }
 814              		.loc 2 24 41 is_stmt 0
 815 0450 93071000 		li	a5,1
 816 0454 2304F502 		sb	a5,40(a0)
 817              	.LVL71:
 818              	.LBE45:
 819              	.LBE44:
  97:src/TCB.cpp   ****     TCB::running->waitList();
 820              		.loc 1 97 5 is_stmt 1
 821              		.loc 1 97 27 is_stmt 0
 822 0458 97000000 		call	_ZN3TCB8waitListEv
 822      E7800000 
 823              	.LVL72:
  98:src/TCB.cpp   ****     thread_dispatch();
 824              		.loc 1 98 5 is_stmt 1
 825              		.loc 1 98 20 is_stmt 0
 826 0460 97000000 		call	_Z15thread_dispatchv@plt
 826      E7800000 
 827              	.LVL73:
  99:src/TCB.cpp   **** }
 828              		.loc 1 99 1
 829 0468 83308101 		ld	ra,24(sp)
 830              		.cfi_restore 1
 831 046c 03340101 		ld	s0,16(sp)
 832              		.cfi_restore 8
 833              		.cfi_def_cfa 2, 32
 834 0470 83348100 		ld	s1,8(sp)
 835              		.cfi_restore 9
 836 0474 13010102 		addi	sp,sp,32
 837              		.cfi_def_cfa_offset 0
 838 0478 67800000 		jr	ra
 839              		.cfi_endproc
 840              	.LFE46:
 842              		.globl	_ZN3TCB8userModeE
 843              		.globl	_ZN3TCB16timeSliceCounterE
 844              		.globl	_ZN3TCB7runningE
 845              		.bss
 846              		.align	3
 847              		.set	.LANCHOR0,. + 0
 850              	_ZN3TCB8userModeE:
 851 0000 00       		.zero	1
 852 0001 00000000 		.zero	7
 852      000000
 855              	_ZN3TCB7runningE:
 856 0008 00000000 		.zero	8
 856      00000000 
 859              	_ZN3TCB16timeSliceCounterE:
 860 0010 00000000 		.zero	8
 860      00000000 
 861              		.text
 862              	.Letext0:
GAS LISTING /tmp/ccMPtmRV.s 			page 20


 863              		.file 3 "src/../h/../lib/hw.h"
 864              		.file 4 "src/../h/../h/Scheduler.hpp"
 865              		.file 5 "src/../h/../h/Sleeping.hpp"
 866              		.file 6 "src/../h/syscall_c.hpp"
 867              		.file 7 "src/../h/../h/syscall_cpp.hpp"
 3999              		.align	3
 4002              	DW.ref.__gxx_personality_v0:
 4003 0000 00000000 		.dword	__gxx_personality_v0
 4003      00000000 
 4004              		.ident	"GCC: (Ubuntu 9.4.0-1ubuntu1~20.04) 9.4.0"
 4005              		.section	.note.GNU-stack,"",@progbits
GAS LISTING /tmp/ccMPtmRV.s 			page 21

