GAS LISTING /tmp/cc3YfTQl.s 			page 1


   1              		.file	"System_Mode_test.cpp"
   2              		.option pic
   3              		.option norelax
   4              		.text
   5              	.Ltext0:
   6              		.align	2
   8              	_ZL9fibonaccim:
   9              	.LFB33:
  10              		.file 1 "test/System_Mode_test.cpp"
   1:test/System_Mode_test.cpp **** #include "../h/syscall_c.hpp"
   2:test/System_Mode_test.cpp **** 
   3:test/System_Mode_test.cpp **** #include "printing.hpp"
   4:test/System_Mode_test.cpp **** 
   5:test/System_Mode_test.cpp **** static volatile bool finishedA = false;
   6:test/System_Mode_test.cpp **** static volatile bool finishedB = false;
   7:test/System_Mode_test.cpp **** static volatile bool finishedC = false;
   8:test/System_Mode_test.cpp **** static volatile bool finishedD = false;
   9:test/System_Mode_test.cpp **** 
  10:test/System_Mode_test.cpp **** static uint64 fibonacci(uint64 n) {
  11              		.loc 1 10 35
  12              		.cfi_startproc
  13              	.LVL0:
  14 0000 130101FE 		addi	sp,sp,-32
  15              		.cfi_def_cfa_offset 32
  16 0004 233C1100 		sd	ra,24(sp)
  17 0008 23388100 		sd	s0,16(sp)
  18 000c 23349100 		sd	s1,8(sp)
  19 0010 23302101 		sd	s2,0(sp)
  20              		.cfi_offset 1, -8
  21              		.cfi_offset 8, -16
  22              		.cfi_offset 9, -24
  23              		.cfi_offset 18, -32
  24 0014 13040102 		addi	s0,sp,32
  25              		.cfi_def_cfa 8, 0
  26 0018 93040500 		mv	s1,a0
  11:test/System_Mode_test.cpp ****     if (n == 0 || n == 1) { return n; }
  27              		.loc 1 11 5
  28 001c 93071000 		li	a5,1
  29 0020 63F8A702 		bleu	a0,a5,.L1
  12:test/System_Mode_test.cpp ****     if (n % 10 == 0) { thread_dispatch(); }
  30              		.loc 1 12 5
  31              		.loc 1 12 11 is_stmt 0
  32 0024 9307A000 		li	a5,10
  33 0028 B377F502 		remu	a5,a0,a5
  34              		.loc 1 12 5
  35 002c 638E0702 		beqz	a5,.L6
  36              	.LVL1:
  37              	.L3:
  13:test/System_Mode_test.cpp ****     return fibonacci(n - 1) + fibonacci(n - 2);
  38              		.loc 1 13 5 is_stmt 1
  39              		.loc 1 13 21 is_stmt 0
  40 0030 1385F4FF 		addi	a0,s1,-1
  41 0034 97000000 		call	_ZL9fibonaccim
  41      E7800000 
  42              	.LVL2:
  43 003c 13090500 		mv	s2,a0
  44              		.loc 1 13 40
GAS LISTING /tmp/cc3YfTQl.s 			page 2


  45 0040 1385E4FF 		addi	a0,s1,-2
  46 0044 97000000 		call	_ZL9fibonaccim
  46      E7800000 
  47              	.LVL3:
  48              		.loc 1 13 46
  49 004c 3305A900 		add	a0,s2,a0
  50              	.L1:
  14:test/System_Mode_test.cpp **** }
  51              		.loc 1 14 1
  52 0050 83308101 		ld	ra,24(sp)
  53              		.cfi_remember_state
  54              		.cfi_restore 1
  55 0054 03340101 		ld	s0,16(sp)
  56              		.cfi_restore 8
  57              		.cfi_def_cfa 2, 32
  58 0058 83348100 		ld	s1,8(sp)
  59              		.cfi_restore 9
  60              	.LVL4:
  61 005c 03390100 		ld	s2,0(sp)
  62              		.cfi_restore 18
  63 0060 13010102 		addi	sp,sp,32
  64              		.cfi_def_cfa_offset 0
  65 0064 67800000 		jr	ra
  66              	.LVL5:
  67              	.L6:
  68              		.cfi_restore_state
  12:test/System_Mode_test.cpp ****     if (n % 10 == 0) { thread_dispatch(); }
  69              		.loc 1 12 24 is_stmt 1 discriminator 1
  12:test/System_Mode_test.cpp ****     if (n % 10 == 0) { thread_dispatch(); }
  70              		.loc 1 12 39 is_stmt 0 discriminator 1
  71 0068 97000000 		call	_Z15thread_dispatchv@plt
  71      E7800000 
  72              	.LVL6:
  73 0070 6FF01FFC 		j	.L3
  74              		.cfi_endproc
  75              	.LFE33:
  77              		.section	.rodata.str1.8,"aMS",@progbits,1
  78              		.align	3
  79              	.LC0:
  80 0000 443A2069 		.string	"D: i="
  80      3D00
  81 0006 0000     		.align	3
  82              	.LC1:
  83 0008 0A00     		.string	"\n"
  84 000a 00000000 		.align	3
  84      0000
  85              	.LC2:
  86 0010 443A2064 		.string	"D: dispatch\n"
  86      69737061 
  86      7463680A 
  86      00
  87 001d 000000   		.align	3
  88              	.LC3:
  89 0020 443A2066 		.string	"D: fibonaci="
  89      69626F6E 
  89      6163693D 
  89      00
GAS LISTING /tmp/cc3YfTQl.s 			page 3


  90 002d 000000   		.align	3
  91              	.LC4:
  92 0030 44206669 		.string	"D finished!\n"
  92      6E697368 
  92      6564210A 
  92      00
  93              		.text
  94              		.align	2
  96              	_ZL11workerBodyDPv:
  97              	.LFB37:
  15:test/System_Mode_test.cpp **** 
  16:test/System_Mode_test.cpp **** static void workerBodyA(void* arg) {
  17:test/System_Mode_test.cpp ****     for (uint64 i = 0; i < 10; i++) {
  18:test/System_Mode_test.cpp ****         printString("A: i="); printInt(i); printString("\n");
  19:test/System_Mode_test.cpp ****         for (uint64 j = 0; j < 10000; j++) {
  20:test/System_Mode_test.cpp ****             for (uint64 k = 0; k < 30000; k++) { /* busy wait */ }
  21:test/System_Mode_test.cpp ****             thread_dispatch();
  22:test/System_Mode_test.cpp ****         }
  23:test/System_Mode_test.cpp ****     }
  24:test/System_Mode_test.cpp ****     printString("A finished!\n");
  25:test/System_Mode_test.cpp ****     finishedA = true;
  26:test/System_Mode_test.cpp **** }
  27:test/System_Mode_test.cpp **** 
  28:test/System_Mode_test.cpp **** static void workerBodyB(void* arg) {
  29:test/System_Mode_test.cpp ****     for (uint64 i = 0; i < 16; i++) {
  30:test/System_Mode_test.cpp ****         printString("B: i="); printInt(i); printString("\n");
  31:test/System_Mode_test.cpp ****         for (uint64 j = 0; j < 10000; j++) {
  32:test/System_Mode_test.cpp ****             for (uint64 k = 0; k < 30000; k++) { /* busy wait */ }
  33:test/System_Mode_test.cpp ****             thread_dispatch();
  34:test/System_Mode_test.cpp ****         }
  35:test/System_Mode_test.cpp ****         if (i == 10) {
  36:test/System_Mode_test.cpp ****             asm volatile("csrr t6, sepc");
  37:test/System_Mode_test.cpp ****         }
  38:test/System_Mode_test.cpp ****     }
  39:test/System_Mode_test.cpp ****     printString("B finished!\n");
  40:test/System_Mode_test.cpp ****     finishedB = true;
  41:test/System_Mode_test.cpp ****     thread_dispatch();
  42:test/System_Mode_test.cpp **** }
  43:test/System_Mode_test.cpp **** 
  44:test/System_Mode_test.cpp **** static void workerBodyC(void* arg) {
  45:test/System_Mode_test.cpp ****     uint8 i = 0;
  46:test/System_Mode_test.cpp ****     for (; i < 3; i++) {
  47:test/System_Mode_test.cpp ****         printString("C: i="); printInt(i); printString("\n");
  48:test/System_Mode_test.cpp ****     }
  49:test/System_Mode_test.cpp **** 
  50:test/System_Mode_test.cpp ****     printString("C: dispatch\n");
  51:test/System_Mode_test.cpp ****     __asm__ ("li t1, 7");
  52:test/System_Mode_test.cpp ****     thread_dispatch();
  53:test/System_Mode_test.cpp **** 
  54:test/System_Mode_test.cpp ****     uint64 t1 = 0;
  55:test/System_Mode_test.cpp ****     __asm__ ("mv %[t1], t1" : [t1] "=r"(t1));
  56:test/System_Mode_test.cpp **** 
  57:test/System_Mode_test.cpp ****     printString("C: t1="); printInt(t1); printString("\n");
  58:test/System_Mode_test.cpp **** 
  59:test/System_Mode_test.cpp ****     uint64 result = fibonacci(12);
  60:test/System_Mode_test.cpp ****     printString("C: fibonaci="); printInt(result); printString("\n");
  61:test/System_Mode_test.cpp **** 
GAS LISTING /tmp/cc3YfTQl.s 			page 4


  62:test/System_Mode_test.cpp ****     for (; i < 6; i++) {
  63:test/System_Mode_test.cpp ****         printString("C: i="); printInt(i); printString("\n");
  64:test/System_Mode_test.cpp ****     }
  65:test/System_Mode_test.cpp **** 
  66:test/System_Mode_test.cpp ****     printString("C finished!\n");
  67:test/System_Mode_test.cpp ****     finishedC = true;
  68:test/System_Mode_test.cpp ****     thread_dispatch();
  69:test/System_Mode_test.cpp **** }
  70:test/System_Mode_test.cpp **** 
  71:test/System_Mode_test.cpp **** static void workerBodyD(void* arg) {
  98              		.loc 1 71 36 is_stmt 1
  99              		.cfi_startproc
 100              	.LVL7:
 101 0074 130101FE 		addi	sp,sp,-32
 102              		.cfi_def_cfa_offset 32
 103 0078 233C1100 		sd	ra,24(sp)
 104 007c 23388100 		sd	s0,16(sp)
 105 0080 23349100 		sd	s1,8(sp)
 106 0084 23302101 		sd	s2,0(sp)
 107              		.cfi_offset 1, -8
 108              		.cfi_offset 8, -16
 109              		.cfi_offset 9, -24
 110              		.cfi_offset 18, -32
 111 0088 13040102 		addi	s0,sp,32
 112              		.cfi_def_cfa 8, 0
  72:test/System_Mode_test.cpp ****     uint8 i = 10;
 113              		.loc 1 72 5
 114              	.LVL8:
 115              		.loc 1 72 11 is_stmt 0
 116 008c 9304A000 		li	s1,10
 117 0090 6F000004 		j	.L9
 118              	.LVL9:
 119              	.L13:
  73:test/System_Mode_test.cpp ****     for (; i < 13; i++) {
  74:test/System_Mode_test.cpp ****         printString("D: i="); printInt(i); printString("\n");
 120              		.loc 1 74 9 is_stmt 1 discriminator 1
 121              		.loc 1 74 20 is_stmt 0 discriminator 1
 122 0094 17050000 		lla	a0,.LC0
 122      13050500 
 123 009c 97000000 		call	_Z11printStringPKc@plt
 123      E7800000 
 124              	.LVL10:
 125              		.loc 1 74 31 is_stmt 1 discriminator 1
 126              		.loc 1 74 39 is_stmt 0 discriminator 1
 127 00a4 13060000 		li	a2,0
 128 00a8 9305A000 		li	a1,10
 129 00ac 13850400 		mv	a0,s1
 130 00b0 97000000 		call	_Z8printIntiii@plt
 130      E7800000 
 131              	.LVL11:
 132              		.loc 1 74 44 is_stmt 1 discriminator 1
 133              		.loc 1 74 55 is_stmt 0 discriminator 1
 134 00b8 17050000 		lla	a0,.LC1
 134      13050500 
 135 00c0 97000000 		call	_Z11printStringPKc@plt
 135      E7800000 
 136              	.LVL12:
GAS LISTING /tmp/cc3YfTQl.s 			page 5


  73:test/System_Mode_test.cpp ****     for (; i < 13; i++) {
 137              		.loc 1 73 5 is_stmt 1 discriminator 1
 138 00c8 9B841400 		addiw	s1,s1,1
 139              	.LVL13:
 140 00cc 93F4F40F 		andi	s1,s1,0xff
 141              	.LVL14:
 142              	.L9:
  73:test/System_Mode_test.cpp ****     for (; i < 13; i++) {
 143              		.loc 1 73 5 discriminator 2
  73:test/System_Mode_test.cpp ****     for (; i < 13; i++) {
 144              		.loc 1 73 14 discriminator 2
 145 00d0 9307C000 		li	a5,12
 146 00d4 E3F097FC 		bleu	s1,a5,.L13
  75:test/System_Mode_test.cpp ****     }
  76:test/System_Mode_test.cpp **** 
  77:test/System_Mode_test.cpp ****     printString("D: dispatch\n");
 147              		.loc 1 77 5
 148              		.loc 1 77 16 is_stmt 0
 149 00d8 17050000 		lla	a0,.LC2
 149      13050500 
 150 00e0 97000000 		call	_Z11printStringPKc@plt
 150      E7800000 
 151              	.LVL15:
  78:test/System_Mode_test.cpp ****     __asm__ ("li t1, 5");
 152              		.loc 1 78 5 is_stmt 1
 153              		.loc 1 78 25 is_stmt 0
 154              	#APP
 155              	# 78 "test/System_Mode_test.cpp" 1
  79              	    thread_dispatch();
 156              		li t1, 5
 157              	# 0 "" 2
 158              		.loc 1 79 5 is_stmt 1
 159              		.loc 1 79 20 is_stmt 0
 160              	#NO_APP
 161 00ec 97000000 		call	_Z15thread_dispatchv@plt
 161      E7800000 
 162              	.LVL16:
  80:test/System_Mode_test.cpp **** 
  81:test/System_Mode_test.cpp ****     uint64 result = fibonacci(16);
 163              		.loc 1 81 5 is_stmt 1
 164              		.loc 1 81 30 is_stmt 0
 165 00f4 13050001 		li	a0,16
 166 00f8 97000000 		call	_ZL9fibonaccim
 166      E7800000 
 167              	.LVL17:
 168 0100 13090500 		mv	s2,a0
 169              	.LVL18:
  82:test/System_Mode_test.cpp ****     printString("D: fibonaci="); printInt(result); printString("\n");
 170              		.loc 1 82 5 is_stmt 1
 171              		.loc 1 82 16 is_stmt 0
 172 0104 17050000 		lla	a0,.LC3
 172      13050500 
 173              	.LVL19:
 174 010c 97000000 		call	_Z11printStringPKc@plt
 174      E7800000 
 175              	.LVL20:
 176              		.loc 1 82 34 is_stmt 1
GAS LISTING /tmp/cc3YfTQl.s 			page 6


 177              		.loc 1 82 42 is_stmt 0
 178 0114 13060000 		li	a2,0
 179 0118 9305A000 		li	a1,10
 180 011c 1B050900 		sext.w	a0,s2
 181 0120 97000000 		call	_Z8printIntiii@plt
 181      E7800000 
 182              	.LVL21:
 183              		.loc 1 82 52 is_stmt 1
 184              		.loc 1 82 63 is_stmt 0
 185 0128 17050000 		lla	a0,.LC1
 185      13050500 
 186 0130 97000000 		call	_Z11printStringPKc@plt
 186      E7800000 
 187              	.LVL22:
 188 0138 6F000004 		j	.L11
 189              	.L14:
  83:test/System_Mode_test.cpp **** 
  84:test/System_Mode_test.cpp ****     for (; i < 16; i++) {
  85:test/System_Mode_test.cpp ****         printString("D: i="); printInt(i); printString("\n");
 190              		.loc 1 85 9 is_stmt 1 discriminator 1
 191              		.loc 1 85 20 is_stmt 0 discriminator 1
 192 013c 17050000 		lla	a0,.LC0
 192      13050500 
 193 0144 97000000 		call	_Z11printStringPKc@plt
 193      E7800000 
 194              	.LVL23:
 195              		.loc 1 85 31 is_stmt 1 discriminator 1
 196              		.loc 1 85 39 is_stmt 0 discriminator 1
 197 014c 13060000 		li	a2,0
 198 0150 9305A000 		li	a1,10
 199 0154 13850400 		mv	a0,s1
 200 0158 97000000 		call	_Z8printIntiii@plt
 200      E7800000 
 201              	.LVL24:
 202              		.loc 1 85 44 is_stmt 1 discriminator 1
 203              		.loc 1 85 55 is_stmt 0 discriminator 1
 204 0160 17050000 		lla	a0,.LC1
 204      13050500 
 205 0168 97000000 		call	_Z11printStringPKc@plt
 205      E7800000 
 206              	.LVL25:
  84:test/System_Mode_test.cpp ****         printString("D: i="); printInt(i); printString("\n");
 207              		.loc 1 84 5 is_stmt 1 discriminator 1
 208 0170 9B841400 		addiw	s1,s1,1
 209              	.LVL26:
 210 0174 93F4F40F 		andi	s1,s1,0xff
 211              	.LVL27:
 212              	.L11:
  84:test/System_Mode_test.cpp ****         printString("D: i="); printInt(i); printString("\n");
 213              		.loc 1 84 5 discriminator 2
  84:test/System_Mode_test.cpp ****         printString("D: i="); printInt(i); printString("\n");
 214              		.loc 1 84 14 discriminator 2
 215 0178 9307F000 		li	a5,15
 216 017c E3F097FC 		bleu	s1,a5,.L14
  86:test/System_Mode_test.cpp ****     }
  87:test/System_Mode_test.cpp **** 
  88:test/System_Mode_test.cpp ****     printString("D finished!\n");
GAS LISTING /tmp/cc3YfTQl.s 			page 7


 217              		.loc 1 88 5
 218              		.loc 1 88 16 is_stmt 0
 219 0180 17050000 		lla	a0,.LC4
 219      13050500 
 220 0188 97000000 		call	_Z11printStringPKc@plt
 220      E7800000 
 221              	.LVL28:
  89:test/System_Mode_test.cpp ****     finishedD = true;
 222              		.loc 1 89 5 is_stmt 1
 223              		.loc 1 89 15 is_stmt 0
 224 0190 93071000 		li	a5,1
 225 0194 17070000 		sb	a5,.LANCHOR0,a4
 225      2300F700 
  90:test/System_Mode_test.cpp ****     thread_dispatch();
 226              		.loc 1 90 5 is_stmt 1
 227              		.loc 1 90 20 is_stmt 0
 228 019c 97000000 		call	_Z15thread_dispatchv@plt
 228      E7800000 
 229              	.LVL29:
  91:test/System_Mode_test.cpp **** }
 230              		.loc 1 91 1
 231 01a4 83308101 		ld	ra,24(sp)
 232              		.cfi_restore 1
 233 01a8 03340101 		ld	s0,16(sp)
 234              		.cfi_restore 8
 235              		.cfi_def_cfa 2, 32
 236 01ac 83348100 		ld	s1,8(sp)
 237              		.cfi_restore 9
 238              	.LVL30:
 239 01b0 03390100 		ld	s2,0(sp)
 240              		.cfi_restore 18
 241              	.LVL31:
 242 01b4 13010102 		addi	sp,sp,32
 243              		.cfi_def_cfa_offset 0
 244 01b8 67800000 		jr	ra
 245              		.cfi_endproc
 246              	.LFE37:
 248              		.section	.rodata.str1.8
 249 003d 000000   		.align	3
 250              	.LC5:
 251 0040 433A2069 		.string	"C: i="
 251      3D00
 252 0046 0000     		.align	3
 253              	.LC6:
 254 0048 433A2064 		.string	"C: dispatch\n"
 254      69737061 
 254      7463680A 
 254      00
 255 0055 000000   		.align	3
 256              	.LC7:
 257 0058 433A2074 		.string	"C: t1="
 257      313D00
 258 005f 00       		.align	3
 259              	.LC8:
 260 0060 433A2066 		.string	"C: fibonaci="
 260      69626F6E 
 260      6163693D 
GAS LISTING /tmp/cc3YfTQl.s 			page 8


 260      00
 261 006d 000000   		.align	3
 262              	.LC9:
 263 0070 43206669 		.string	"C finished!\n"
 263      6E697368 
 263      6564210A 
 263      00
 264              		.text
 265              		.align	2
 267              	_ZL11workerBodyCPv:
 268              	.LFB36:
  44:test/System_Mode_test.cpp ****     uint8 i = 0;
 269              		.loc 1 44 36 is_stmt 1
 270              		.cfi_startproc
 271              	.LVL32:
 272 01bc 130101FE 		addi	sp,sp,-32
 273              		.cfi_def_cfa_offset 32
 274 01c0 233C1100 		sd	ra,24(sp)
 275 01c4 23388100 		sd	s0,16(sp)
 276 01c8 23349100 		sd	s1,8(sp)
 277 01cc 23302101 		sd	s2,0(sp)
 278              		.cfi_offset 1, -8
 279              		.cfi_offset 8, -16
 280              		.cfi_offset 9, -24
 281              		.cfi_offset 18, -32
 282 01d0 13040102 		addi	s0,sp,32
 283              		.cfi_def_cfa 8, 0
  45:test/System_Mode_test.cpp ****     for (; i < 3; i++) {
 284              		.loc 1 45 5
 285              	.LVL33:
  45:test/System_Mode_test.cpp ****     for (; i < 3; i++) {
 286              		.loc 1 45 11 is_stmt 0
 287 01d4 93040000 		li	s1,0
 288 01d8 6F000004 		j	.L17
 289              	.LVL34:
 290              	.L21:
  47:test/System_Mode_test.cpp ****     }
 291              		.loc 1 47 9 is_stmt 1 discriminator 1
  47:test/System_Mode_test.cpp ****     }
 292              		.loc 1 47 20 is_stmt 0 discriminator 1
 293 01dc 17050000 		lla	a0,.LC5
 293      13050500 
 294 01e4 97000000 		call	_Z11printStringPKc@plt
 294      E7800000 
 295              	.LVL35:
  47:test/System_Mode_test.cpp ****     }
 296              		.loc 1 47 31 is_stmt 1 discriminator 1
  47:test/System_Mode_test.cpp ****     }
 297              		.loc 1 47 39 is_stmt 0 discriminator 1
 298 01ec 13060000 		li	a2,0
 299 01f0 9305A000 		li	a1,10
 300 01f4 13850400 		mv	a0,s1
 301 01f8 97000000 		call	_Z8printIntiii@plt
 301      E7800000 
 302              	.LVL36:
  47:test/System_Mode_test.cpp ****     }
 303              		.loc 1 47 44 is_stmt 1 discriminator 1
GAS LISTING /tmp/cc3YfTQl.s 			page 9


  47:test/System_Mode_test.cpp ****     }
 304              		.loc 1 47 55 is_stmt 0 discriminator 1
 305 0200 17050000 		lla	a0,.LC1
 305      13050500 
 306 0208 97000000 		call	_Z11printStringPKc@plt
 306      E7800000 
 307              	.LVL37:
  46:test/System_Mode_test.cpp ****         printString("C: i="); printInt(i); printString("\n");
 308              		.loc 1 46 5 is_stmt 1 discriminator 1
 309 0210 9B841400 		addiw	s1,s1,1
 310              	.LVL38:
 311 0214 93F4F40F 		andi	s1,s1,0xff
 312              	.LVL39:
 313              	.L17:
  46:test/System_Mode_test.cpp ****         printString("C: i="); printInt(i); printString("\n");
 314              		.loc 1 46 5 discriminator 2
  46:test/System_Mode_test.cpp ****         printString("C: i="); printInt(i); printString("\n");
 315              		.loc 1 46 14 discriminator 2
 316 0218 93072000 		li	a5,2
 317 021c E3F097FC 		bleu	s1,a5,.L21
  50:test/System_Mode_test.cpp ****     __asm__ ("li t1, 7");
 318              		.loc 1 50 5
  50:test/System_Mode_test.cpp ****     __asm__ ("li t1, 7");
 319              		.loc 1 50 16 is_stmt 0
 320 0220 17050000 		lla	a0,.LC6
 320      13050500 
 321 0228 97000000 		call	_Z11printStringPKc@plt
 321      E7800000 
 322              	.LVL40:
  51:test/System_Mode_test.cpp ****     thread_dispatch();
 323              		.loc 1 51 5 is_stmt 1
  51:test/System_Mode_test.cpp ****     thread_dispatch();
 324              		.loc 1 51 25 is_stmt 0
 325              	#APP
 326              	# 51 "test/System_Mode_test.cpp" 1
  52:test/System_Mode_test.cpp **** 
 327              		li t1, 7
 328              	# 0 "" 2
 329              		.loc 1 52 5 is_stmt 1
  52:test/System_Mode_test.cpp **** 
 330              		.loc 1 52 20 is_stmt 0
 331              	#NO_APP
 332 0234 97000000 		call	_Z15thread_dispatchv@plt
 332      E7800000 
 333              	.LVL41:
  54:test/System_Mode_test.cpp ****     __asm__ ("mv %[t1], t1" : [t1] "=r"(t1));
 334              		.loc 1 54 5 is_stmt 1
  55:test/System_Mode_test.cpp **** 
 335              		.loc 1 55 5
  55:test/System_Mode_test.cpp **** 
 336              		.loc 1 55 45 is_stmt 0
 337              	#APP
 338              	# 55 "test/System_Mode_test.cpp" 1
 339              		mv s2, t1
 340              	# 0 "" 2
 341              	.LVL42:
  57:test/System_Mode_test.cpp **** 
GAS LISTING /tmp/cc3YfTQl.s 			page 10


 342              		.loc 1 57 5 is_stmt 1
  57:test/System_Mode_test.cpp **** 
 343              		.loc 1 57 16 is_stmt 0
 344              	#NO_APP
 345 0240 17050000 		lla	a0,.LC7
 345      13050500 
 346 0248 97000000 		call	_Z11printStringPKc@plt
 346      E7800000 
 347              	.LVL43:
  57:test/System_Mode_test.cpp **** 
 348              		.loc 1 57 28 is_stmt 1
  57:test/System_Mode_test.cpp **** 
 349              		.loc 1 57 36 is_stmt 0
 350 0250 13060000 		li	a2,0
 351 0254 9305A000 		li	a1,10
 352 0258 1B050900 		sext.w	a0,s2
 353 025c 97000000 		call	_Z8printIntiii@plt
 353      E7800000 
 354              	.LVL44:
  57:test/System_Mode_test.cpp **** 
 355              		.loc 1 57 42 is_stmt 1
  57:test/System_Mode_test.cpp **** 
 356              		.loc 1 57 53 is_stmt 0
 357 0264 17050000 		lla	a0,.LC1
 357      13050500 
 358 026c 97000000 		call	_Z11printStringPKc@plt
 358      E7800000 
 359              	.LVL45:
  59:test/System_Mode_test.cpp ****     printString("C: fibonaci="); printInt(result); printString("\n");
 360              		.loc 1 59 5 is_stmt 1
  59:test/System_Mode_test.cpp ****     printString("C: fibonaci="); printInt(result); printString("\n");
 361              		.loc 1 59 30 is_stmt 0
 362 0274 1305C000 		li	a0,12
 363 0278 97000000 		call	_ZL9fibonaccim
 363      E7800000 
 364              	.LVL46:
 365 0280 13090500 		mv	s2,a0
 366              	.LVL47:
  60:test/System_Mode_test.cpp **** 
 367              		.loc 1 60 5 is_stmt 1
  60:test/System_Mode_test.cpp **** 
 368              		.loc 1 60 16 is_stmt 0
 369 0284 17050000 		lla	a0,.LC8
 369      13050500 
 370              	.LVL48:
 371 028c 97000000 		call	_Z11printStringPKc@plt
 371      E7800000 
 372              	.LVL49:
  60:test/System_Mode_test.cpp **** 
 373              		.loc 1 60 34 is_stmt 1
  60:test/System_Mode_test.cpp **** 
 374              		.loc 1 60 42 is_stmt 0
 375 0294 13060000 		li	a2,0
 376 0298 9305A000 		li	a1,10
 377 029c 1B050900 		sext.w	a0,s2
 378 02a0 97000000 		call	_Z8printIntiii@plt
 378      E7800000 
GAS LISTING /tmp/cc3YfTQl.s 			page 11


 379              	.LVL50:
  60:test/System_Mode_test.cpp **** 
 380              		.loc 1 60 52 is_stmt 1
  60:test/System_Mode_test.cpp **** 
 381              		.loc 1 60 63 is_stmt 0
 382 02a8 17050000 		lla	a0,.LC1
 382      13050500 
 383 02b0 97000000 		call	_Z11printStringPKc@plt
 383      E7800000 
 384              	.LVL51:
 385 02b8 6F000004 		j	.L19
 386              	.L22:
  63:test/System_Mode_test.cpp ****     }
 387              		.loc 1 63 9 is_stmt 1 discriminator 1
  63:test/System_Mode_test.cpp ****     }
 388              		.loc 1 63 20 is_stmt 0 discriminator 1
 389 02bc 17050000 		lla	a0,.LC5
 389      13050500 
 390 02c4 97000000 		call	_Z11printStringPKc@plt
 390      E7800000 
 391              	.LVL52:
  63:test/System_Mode_test.cpp ****     }
 392              		.loc 1 63 31 is_stmt 1 discriminator 1
  63:test/System_Mode_test.cpp ****     }
 393              		.loc 1 63 39 is_stmt 0 discriminator 1
 394 02cc 13060000 		li	a2,0
 395 02d0 9305A000 		li	a1,10
 396 02d4 13850400 		mv	a0,s1
 397 02d8 97000000 		call	_Z8printIntiii@plt
 397      E7800000 
 398              	.LVL53:
  63:test/System_Mode_test.cpp ****     }
 399              		.loc 1 63 44 is_stmt 1 discriminator 1
  63:test/System_Mode_test.cpp ****     }
 400              		.loc 1 63 55 is_stmt 0 discriminator 1
 401 02e0 17050000 		lla	a0,.LC1
 401      13050500 
 402 02e8 97000000 		call	_Z11printStringPKc@plt
 402      E7800000 
 403              	.LVL54:
  62:test/System_Mode_test.cpp ****         printString("C: i="); printInt(i); printString("\n");
 404              		.loc 1 62 5 is_stmt 1 discriminator 1
 405 02f0 9B841400 		addiw	s1,s1,1
 406              	.LVL55:
 407 02f4 93F4F40F 		andi	s1,s1,0xff
 408              	.LVL56:
 409              	.L19:
  62:test/System_Mode_test.cpp ****         printString("C: i="); printInt(i); printString("\n");
 410              		.loc 1 62 5 discriminator 2
  62:test/System_Mode_test.cpp ****         printString("C: i="); printInt(i); printString("\n");
 411              		.loc 1 62 14 discriminator 2
 412 02f8 93075000 		li	a5,5
 413 02fc E3F097FC 		bleu	s1,a5,.L22
  66:test/System_Mode_test.cpp ****     finishedC = true;
 414              		.loc 1 66 5
  66:test/System_Mode_test.cpp ****     finishedC = true;
 415              		.loc 1 66 16 is_stmt 0
GAS LISTING /tmp/cc3YfTQl.s 			page 12


 416 0300 17050000 		lla	a0,.LC9
 416      13050500 
 417 0308 97000000 		call	_Z11printStringPKc@plt
 417      E7800000 
 418              	.LVL57:
  67:test/System_Mode_test.cpp ****     thread_dispatch();
 419              		.loc 1 67 5 is_stmt 1
  67:test/System_Mode_test.cpp ****     thread_dispatch();
 420              		.loc 1 67 15 is_stmt 0
 421 0310 93071000 		li	a5,1
 422 0314 17070000 		sb	a5,.LANCHOR0+1,a4
 422      2300F700 
  68:test/System_Mode_test.cpp **** }
 423              		.loc 1 68 5 is_stmt 1
  68:test/System_Mode_test.cpp **** }
 424              		.loc 1 68 20 is_stmt 0
 425 031c 97000000 		call	_Z15thread_dispatchv@plt
 425      E7800000 
 426              	.LVL58:
  69:test/System_Mode_test.cpp **** 
 427              		.loc 1 69 1
 428 0324 83308101 		ld	ra,24(sp)
 429              		.cfi_restore 1
 430 0328 03340101 		ld	s0,16(sp)
 431              		.cfi_restore 8
 432              		.cfi_def_cfa 2, 32
 433 032c 83348100 		ld	s1,8(sp)
 434              		.cfi_restore 9
 435              	.LVL59:
 436 0330 03390100 		ld	s2,0(sp)
 437              		.cfi_restore 18
 438              	.LVL60:
 439 0334 13010102 		addi	sp,sp,32
 440              		.cfi_def_cfa_offset 0
 441 0338 67800000 		jr	ra
 442              		.cfi_endproc
 443              	.LFE36:
 445              		.section	.rodata.str1.8
 446 007d 000000   		.align	3
 447              	.LC10:
 448 0080 423A2069 		.string	"B: i="
 448      3D00
 449 0086 0000     		.align	3
 450              	.LC11:
 451 0088 42206669 		.string	"B finished!\n"
 451      6E697368 
 451      6564210A 
 451      00
 452              		.text
 453              		.align	2
 455              	_ZL11workerBodyBPv:
 456              	.LFB35:
  28:test/System_Mode_test.cpp ****     for (uint64 i = 0; i < 16; i++) {
 457              		.loc 1 28 36 is_stmt 1
 458              		.cfi_startproc
 459              	.LVL61:
 460 033c 130101FE 		addi	sp,sp,-32
GAS LISTING /tmp/cc3YfTQl.s 			page 13


 461              		.cfi_def_cfa_offset 32
 462 0340 233C1100 		sd	ra,24(sp)
 463 0344 23388100 		sd	s0,16(sp)
 464 0348 23349100 		sd	s1,8(sp)
 465 034c 23302101 		sd	s2,0(sp)
 466              		.cfi_offset 1, -8
 467              		.cfi_offset 8, -16
 468              		.cfi_offset 9, -24
 469              		.cfi_offset 18, -32
 470 0350 13040102 		addi	s0,sp,32
 471              		.cfi_def_cfa 8, 0
  29:test/System_Mode_test.cpp ****         printString("B: i="); printInt(i); printString("\n");
 472              		.loc 1 29 5
 473              	.LVL62:
 474              	.LBB2:
  29:test/System_Mode_test.cpp ****         printString("B: i="); printInt(i); printString("\n");
 475              		.loc 1 29 17 is_stmt 0
 476 0354 13090000 		li	s2,0
 477 0358 6F000004 		j	.L30
 478              	.LVL63:
 479              	.L26:
 480              	.LBB3:
 481              	.LBB4:
 482              	.LBB5:
  33:test/System_Mode_test.cpp ****         }
 483              		.loc 1 33 13 is_stmt 1 discriminator 2
  33:test/System_Mode_test.cpp ****         }
 484              		.loc 1 33 28 is_stmt 0 discriminator 2
 485 035c 97000000 		call	_Z15thread_dispatchv@plt
 485      E7800000 
 486              	.LVL64:
 487              	.LBE5:
  31:test/System_Mode_test.cpp ****             for (uint64 k = 0; k < 30000; k++) { /* busy wait */ }
 488              		.loc 1 31 9 is_stmt 1 discriminator 2
 489 0364 93841400 		addi	s1,s1,1
 490              	.LVL65:
 491              	.L28:
  31:test/System_Mode_test.cpp ****             for (uint64 k = 0; k < 30000; k++) { /* busy wait */ }
 492              		.loc 1 31 30 discriminator 1
 493 0368 B7270000 		li	a5,8192
 494 036c 9387F770 		addi	a5,a5,1807
 495 0370 63EE9700 		bgtu	s1,a5,.L25
 496              	.LBB7:
 497              	.LBB6:
  32:test/System_Mode_test.cpp ****             thread_dispatch();
 498              		.loc 1 32 25 is_stmt 0
 499 0374 13070000 		li	a4,0
 500              	.L27:
 501              	.LVL66:
  32:test/System_Mode_test.cpp ****             thread_dispatch();
 502              		.loc 1 32 34 is_stmt 1 discriminator 3
 503 0378 B7770000 		li	a5,28672
 504 037c 9387F752 		addi	a5,a5,1327
 505 0380 E3EEE7FC 		bgtu	a4,a5,.L26
  32:test/System_Mode_test.cpp ****             thread_dispatch();
 506              		.loc 1 32 13 discriminator 2
 507 0384 13071700 		addi	a4,a4,1
GAS LISTING /tmp/cc3YfTQl.s 			page 14


 508              	.LVL67:
 509 0388 6FF01FFF 		j	.L27
 510              	.LVL68:
 511              	.L25:
 512              	.LBE6:
 513              	.LBE7:
 514              	.LBE4:
  35:test/System_Mode_test.cpp ****             asm volatile("csrr t6, sepc");
 515              		.loc 1 35 9
 516 038c 9307A000 		li	a5,10
 517 0390 6306F904 		beq	s2,a5,.L32
 518              	.L29:
 519              	.LBE3:
  29:test/System_Mode_test.cpp ****         printString("B: i="); printInt(i); printString("\n");
 520              		.loc 1 29 5 discriminator 2
 521 0394 13091900 		addi	s2,s2,1
 522              	.LVL69:
 523              	.L30:
  29:test/System_Mode_test.cpp ****         printString("B: i="); printInt(i); printString("\n");
 524              		.loc 1 29 26 discriminator 1
 525 0398 9307F000 		li	a5,15
 526 039c 63E42705 		bgtu	s2,a5,.L24
 527              	.LBB9:
  30:test/System_Mode_test.cpp ****         for (uint64 j = 0; j < 10000; j++) {
 528              		.loc 1 30 9
  30:test/System_Mode_test.cpp ****         for (uint64 j = 0; j < 10000; j++) {
 529              		.loc 1 30 20 is_stmt 0
 530 03a0 17050000 		lla	a0,.LC10
 530      13050500 
 531 03a8 97000000 		call	_Z11printStringPKc@plt
 531      E7800000 
 532              	.LVL70:
  30:test/System_Mode_test.cpp ****         for (uint64 j = 0; j < 10000; j++) {
 533              		.loc 1 30 31 is_stmt 1
  30:test/System_Mode_test.cpp ****         for (uint64 j = 0; j < 10000; j++) {
 534              		.loc 1 30 39 is_stmt 0
 535 03b0 13060000 		li	a2,0
 536 03b4 9305A000 		li	a1,10
 537 03b8 1B050900 		sext.w	a0,s2
 538 03bc 97000000 		call	_Z8printIntiii@plt
 538      E7800000 
 539              	.LVL71:
  30:test/System_Mode_test.cpp ****         for (uint64 j = 0; j < 10000; j++) {
 540              		.loc 1 30 44 is_stmt 1
  30:test/System_Mode_test.cpp ****         for (uint64 j = 0; j < 10000; j++) {
 541              		.loc 1 30 55 is_stmt 0
 542 03c4 17050000 		lla	a0,.LC1
 542      13050500 
 543 03cc 97000000 		call	_Z11printStringPKc@plt
 543      E7800000 
 544              	.LVL72:
  31:test/System_Mode_test.cpp ****             for (uint64 k = 0; k < 30000; k++) { /* busy wait */ }
 545              		.loc 1 31 9 is_stmt 1
 546              	.LBB8:
  31:test/System_Mode_test.cpp ****             for (uint64 k = 0; k < 30000; k++) { /* busy wait */ }
 547              		.loc 1 31 21 is_stmt 0
 548 03d4 93040000 		li	s1,0
GAS LISTING /tmp/cc3YfTQl.s 			page 15


 549 03d8 6FF01FF9 		j	.L28
 550              	.LVL73:
 551              	.L32:
 552              	.LBE8:
  36:test/System_Mode_test.cpp ****         }
 553              		.loc 1 36 13 is_stmt 1
  36:test/System_Mode_test.cpp ****         }
 554              		.loc 1 36 42 is_stmt 0
 555              	#APP
 556              	# 36 "test/System_Mode_test.cpp" 1
 557              		csrr t6, sepc
 558              	# 0 "" 2
 559              	#NO_APP
 560 03e0 6FF05FFB 		j	.L29
 561              	.LVL74:
 562              	.L24:
 563              	.LBE9:
 564              	.LBE2:
  39:test/System_Mode_test.cpp ****     finishedB = true;
 565              		.loc 1 39 5 is_stmt 1
  39:test/System_Mode_test.cpp ****     finishedB = true;
 566              		.loc 1 39 16 is_stmt 0
 567 03e4 17050000 		lla	a0,.LC11
 567      13050500 
 568 03ec 97000000 		call	_Z11printStringPKc@plt
 568      E7800000 
 569              	.LVL75:
  40:test/System_Mode_test.cpp ****     thread_dispatch();
 570              		.loc 1 40 5 is_stmt 1
  40:test/System_Mode_test.cpp ****     thread_dispatch();
 571              		.loc 1 40 15 is_stmt 0
 572 03f4 93071000 		li	a5,1
 573 03f8 17070000 		sb	a5,.LANCHOR0+2,a4
 573      2300F700 
  41:test/System_Mode_test.cpp **** }
 574              		.loc 1 41 5 is_stmt 1
  41:test/System_Mode_test.cpp **** }
 575              		.loc 1 41 20 is_stmt 0
 576 0400 97000000 		call	_Z15thread_dispatchv@plt
 576      E7800000 
 577              	.LVL76:
  42:test/System_Mode_test.cpp **** 
 578              		.loc 1 42 1
 579 0408 83308101 		ld	ra,24(sp)
 580              		.cfi_restore 1
 581 040c 03340101 		ld	s0,16(sp)
 582              		.cfi_restore 8
 583              		.cfi_def_cfa 2, 32
 584 0410 83348100 		ld	s1,8(sp)
 585              		.cfi_restore 9
 586 0414 03390100 		ld	s2,0(sp)
 587              		.cfi_restore 18
 588              	.LVL77:
 589 0418 13010102 		addi	sp,sp,32
 590              		.cfi_def_cfa_offset 0
 591 041c 67800000 		jr	ra
 592              		.cfi_endproc
GAS LISTING /tmp/cc3YfTQl.s 			page 16


 593              	.LFE35:
 595              		.section	.rodata.str1.8
 596 0095 000000   		.align	3
 597              	.LC12:
 598 0098 413A2069 		.string	"A: i="
 598      3D00
 599 009e 0000     		.align	3
 600              	.LC13:
 601 00a0 41206669 		.string	"A finished!\n"
 601      6E697368 
 601      6564210A 
 601      00
 602              		.text
 603              		.align	2
 605              	_ZL11workerBodyAPv:
 606              	.LFB34:
  16:test/System_Mode_test.cpp ****     for (uint64 i = 0; i < 10; i++) {
 607              		.loc 1 16 36 is_stmt 1
 608              		.cfi_startproc
 609              	.LVL78:
 610 0420 130101FE 		addi	sp,sp,-32
 611              		.cfi_def_cfa_offset 32
 612 0424 233C1100 		sd	ra,24(sp)
 613 0428 23388100 		sd	s0,16(sp)
 614 042c 23349100 		sd	s1,8(sp)
 615 0430 23302101 		sd	s2,0(sp)
 616              		.cfi_offset 1, -8
 617              		.cfi_offset 8, -16
 618              		.cfi_offset 9, -24
 619              		.cfi_offset 18, -32
 620 0434 13040102 		addi	s0,sp,32
 621              		.cfi_def_cfa 8, 0
  17:test/System_Mode_test.cpp ****         printString("A: i="); printInt(i); printString("\n");
 622              		.loc 1 17 5
 623              	.LVL79:
 624              	.LBB10:
  17:test/System_Mode_test.cpp ****         printString("A: i="); printInt(i); printString("\n");
 625              		.loc 1 17 17 is_stmt 0
 626 0438 13090000 		li	s2,0
 627 043c 6F008003 		j	.L39
 628              	.LVL80:
 629              	.L36:
 630              	.LBB11:
 631              	.LBB12:
 632              	.LBB13:
  21:test/System_Mode_test.cpp ****         }
 633              		.loc 1 21 13 is_stmt 1 discriminator 2
  21:test/System_Mode_test.cpp ****         }
 634              		.loc 1 21 28 is_stmt 0 discriminator 2
 635 0440 97000000 		call	_Z15thread_dispatchv@plt
 635      E7800000 
 636              	.LVL81:
 637              	.LBE13:
  19:test/System_Mode_test.cpp ****             for (uint64 k = 0; k < 30000; k++) { /* busy wait */ }
 638              		.loc 1 19 9 is_stmt 1 discriminator 2
 639 0448 93841400 		addi	s1,s1,1
 640              	.LVL82:
GAS LISTING /tmp/cc3YfTQl.s 			page 17


 641              	.L38:
  19:test/System_Mode_test.cpp ****             for (uint64 k = 0; k < 30000; k++) { /* busy wait */ }
 642              		.loc 1 19 30 discriminator 1
 643 044c B7270000 		li	a5,8192
 644 0450 9387F770 		addi	a5,a5,1807
 645 0454 63EE9700 		bgtu	s1,a5,.L35
 646              	.LBB15:
 647              	.LBB14:
  20:test/System_Mode_test.cpp ****             thread_dispatch();
 648              		.loc 1 20 25 is_stmt 0
 649 0458 13070000 		li	a4,0
 650              	.L37:
 651              	.LVL83:
  20:test/System_Mode_test.cpp ****             thread_dispatch();
 652              		.loc 1 20 34 is_stmt 1 discriminator 3
 653 045c B7770000 		li	a5,28672
 654 0460 9387F752 		addi	a5,a5,1327
 655 0464 E3EEE7FC 		bgtu	a4,a5,.L36
  20:test/System_Mode_test.cpp ****             thread_dispatch();
 656              		.loc 1 20 13 discriminator 2
 657 0468 13071700 		addi	a4,a4,1
 658              	.LVL84:
 659 046c 6FF01FFF 		j	.L37
 660              	.LVL85:
 661              	.L35:
 662              	.LBE14:
 663              	.LBE15:
 664              	.LBE12:
 665              	.LBE11:
  17:test/System_Mode_test.cpp ****         printString("A: i="); printInt(i); printString("\n");
 666              		.loc 1 17 5 discriminator 2
 667 0470 13091900 		addi	s2,s2,1
 668              	.LVL86:
 669              	.L39:
  17:test/System_Mode_test.cpp ****         printString("A: i="); printInt(i); printString("\n");
 670              		.loc 1 17 26 discriminator 1
 671 0474 93079000 		li	a5,9
 672 0478 63E02705 		bgtu	s2,a5,.L34
 673              	.LBB17:
  18:test/System_Mode_test.cpp ****         for (uint64 j = 0; j < 10000; j++) {
 674              		.loc 1 18 9
  18:test/System_Mode_test.cpp ****         for (uint64 j = 0; j < 10000; j++) {
 675              		.loc 1 18 20 is_stmt 0
 676 047c 17050000 		lla	a0,.LC12
 676      13050500 
 677 0484 97000000 		call	_Z11printStringPKc@plt
 677      E7800000 
 678              	.LVL87:
  18:test/System_Mode_test.cpp ****         for (uint64 j = 0; j < 10000; j++) {
 679              		.loc 1 18 31 is_stmt 1
  18:test/System_Mode_test.cpp ****         for (uint64 j = 0; j < 10000; j++) {
 680              		.loc 1 18 39 is_stmt 0
 681 048c 13060000 		li	a2,0
 682 0490 9305A000 		li	a1,10
 683 0494 1B050900 		sext.w	a0,s2
 684 0498 97000000 		call	_Z8printIntiii@plt
 684      E7800000 
GAS LISTING /tmp/cc3YfTQl.s 			page 18


 685              	.LVL88:
  18:test/System_Mode_test.cpp ****         for (uint64 j = 0; j < 10000; j++) {
 686              		.loc 1 18 44 is_stmt 1
  18:test/System_Mode_test.cpp ****         for (uint64 j = 0; j < 10000; j++) {
 687              		.loc 1 18 55 is_stmt 0
 688 04a0 17050000 		lla	a0,.LC1
 688      13050500 
 689 04a8 97000000 		call	_Z11printStringPKc@plt
 689      E7800000 
 690              	.LVL89:
  19:test/System_Mode_test.cpp ****             for (uint64 k = 0; k < 30000; k++) { /* busy wait */ }
 691              		.loc 1 19 9 is_stmt 1
 692              	.LBB16:
  19:test/System_Mode_test.cpp ****             for (uint64 k = 0; k < 30000; k++) { /* busy wait */ }
 693              		.loc 1 19 21 is_stmt 0
 694 04b0 93040000 		li	s1,0
 695 04b4 6FF09FF9 		j	.L38
 696              	.LVL90:
 697              	.L34:
 698              	.LBE16:
 699              	.LBE17:
 700              	.LBE10:
  24:test/System_Mode_test.cpp ****     finishedA = true;
 701              		.loc 1 24 5 is_stmt 1
  24:test/System_Mode_test.cpp ****     finishedA = true;
 702              		.loc 1 24 16 is_stmt 0
 703 04b8 17050000 		lla	a0,.LC13
 703      13050500 
 704 04c0 97000000 		call	_Z11printStringPKc@plt
 704      E7800000 
 705              	.LVL91:
  25:test/System_Mode_test.cpp **** }
 706              		.loc 1 25 5 is_stmt 1
  25:test/System_Mode_test.cpp **** }
 707              		.loc 1 25 15 is_stmt 0
 708 04c8 93071000 		li	a5,1
 709 04cc 17070000 		sb	a5,.LANCHOR0+3,a4
 709      2300F700 
  26:test/System_Mode_test.cpp **** 
 710              		.loc 1 26 1
 711 04d4 83308101 		ld	ra,24(sp)
 712              		.cfi_restore 1
 713 04d8 03340101 		ld	s0,16(sp)
 714              		.cfi_restore 8
 715              		.cfi_def_cfa 2, 32
 716 04dc 83348100 		ld	s1,8(sp)
 717              		.cfi_restore 9
 718 04e0 03390100 		ld	s2,0(sp)
 719              		.cfi_restore 18
 720              	.LVL92:
 721 04e4 13010102 		addi	sp,sp,32
 722              		.cfi_def_cfa_offset 0
 723 04e8 67800000 		jr	ra
 724              		.cfi_endproc
 725              	.LFE34:
 727              		.section	.rodata.str1.8
 728 00ad 000000   		.align	3
GAS LISTING /tmp/cc3YfTQl.s 			page 19


 729              	.LC14:
 730 00b0 54687265 		.string	"ThreadA created\n"
 730      61644120 
 730      63726561 
 730      7465640A 
 730      00
 731 00c1 00000000 		.align	3
 731      000000
 732              	.LC15:
 733 00c8 54687265 		.string	"ThreadB created\n"
 733      61644220 
 733      63726561 
 733      7465640A 
 733      00
 734 00d9 00000000 		.align	3
 734      000000
 735              	.LC16:
 736 00e0 54687265 		.string	"ThreadC created\n"
 736      61644320 
 736      63726561 
 736      7465640A 
 736      00
 737 00f1 00000000 		.align	3
 737      000000
 738              	.LC17:
 739 00f8 54687265 		.string	"ThreadD created\n"
 739      61644420 
 739      63726561 
 739      7465640A 
 739      00
 740              		.text
 741              		.align	2
 742              		.globl	_Z16System_Mode_testv
 744              	_Z16System_Mode_testv:
 745              	.LFB38:
  92:test/System_Mode_test.cpp **** 
  93:test/System_Mode_test.cpp **** 
  94:test/System_Mode_test.cpp **** void System_Mode_test() {
 746              		.loc 1 94 25 is_stmt 1
 747              		.cfi_startproc
 748 04ec 130101FD 		addi	sp,sp,-48
 749              		.cfi_def_cfa_offset 48
 750 04f0 23341102 		sd	ra,40(sp)
 751 04f4 23308102 		sd	s0,32(sp)
 752              		.cfi_offset 1, -8
 753              		.cfi_offset 8, -16
 754 04f8 13040103 		addi	s0,sp,48
 755              		.cfi_def_cfa 8, 0
  95:test/System_Mode_test.cpp ****     thread_t threads[4];
 756              		.loc 1 95 5
  96:test/System_Mode_test.cpp ****     thread_create(&threads[0], workerBodyA, nullptr);
 757              		.loc 1 96 5
 758              		.loc 1 96 18 is_stmt 0
 759 04fc 13060000 		li	a2,0
 760 0500 97050000 		lla	a1,_ZL11workerBodyAPv
 760      93850500 
 761 0508 130504FD 		addi	a0,s0,-48
GAS LISTING /tmp/cc3YfTQl.s 			page 20


 762 050c 97000000 		call	_Z13thread_createPP3TCBPFvPvES2_@plt
 762      E7800000 
 763              	.LVL93:
  97:test/System_Mode_test.cpp ****     printString("ThreadA created\n");
 764              		.loc 1 97 5 is_stmt 1
 765              		.loc 1 97 16 is_stmt 0
 766 0514 17050000 		lla	a0,.LC14
 766      13050500 
 767 051c 97000000 		call	_Z11printStringPKc@plt
 767      E7800000 
 768              	.LVL94:
  98:test/System_Mode_test.cpp **** 
  99:test/System_Mode_test.cpp ****     thread_create(&threads[1], workerBodyB, nullptr);
 769              		.loc 1 99 5 is_stmt 1
 770              		.loc 1 99 18 is_stmt 0
 771 0524 13060000 		li	a2,0
 772 0528 97050000 		lla	a1,_ZL11workerBodyBPv
 772      93850500 
 773 0530 130584FD 		addi	a0,s0,-40
 774 0534 97000000 		call	_Z13thread_createPP3TCBPFvPvES2_@plt
 774      E7800000 
 775              	.LVL95:
 100:test/System_Mode_test.cpp ****     printString("ThreadB created\n");
 776              		.loc 1 100 5 is_stmt 1
 777              		.loc 1 100 16 is_stmt 0
 778 053c 17050000 		lla	a0,.LC15
 778      13050500 
 779 0544 97000000 		call	_Z11printStringPKc@plt
 779      E7800000 
 780              	.LVL96:
 101:test/System_Mode_test.cpp **** 
 102:test/System_Mode_test.cpp ****     thread_create(&threads[2], workerBodyC, nullptr);
 781              		.loc 1 102 5 is_stmt 1
 782              		.loc 1 102 18 is_stmt 0
 783 054c 13060000 		li	a2,0
 784 0550 97050000 		lla	a1,_ZL11workerBodyCPv
 784      93850500 
 785 0558 130504FE 		addi	a0,s0,-32
 786 055c 97000000 		call	_Z13thread_createPP3TCBPFvPvES2_@plt
 786      E7800000 
 787              	.LVL97:
 103:test/System_Mode_test.cpp ****     printString("ThreadC created\n");
 788              		.loc 1 103 5 is_stmt 1
 789              		.loc 1 103 16 is_stmt 0
 790 0564 17050000 		lla	a0,.LC16
 790      13050500 
 791 056c 97000000 		call	_Z11printStringPKc@plt
 791      E7800000 
 792              	.LVL98:
 104:test/System_Mode_test.cpp **** 
 105:test/System_Mode_test.cpp ****     thread_create(&threads[3], workerBodyD, nullptr);
 793              		.loc 1 105 5 is_stmt 1
 794              		.loc 1 105 18 is_stmt 0
 795 0574 13060000 		li	a2,0
 796 0578 97050000 		lla	a1,_ZL11workerBodyDPv
 796      93850500 
 797 0580 130584FE 		addi	a0,s0,-24
GAS LISTING /tmp/cc3YfTQl.s 			page 21


 798 0584 97000000 		call	_Z13thread_createPP3TCBPFvPvES2_@plt
 798      E7800000 
 799              	.LVL99:
 106:test/System_Mode_test.cpp ****     printString("ThreadD created\n");
 800              		.loc 1 106 5 is_stmt 1
 801              		.loc 1 106 16 is_stmt 0
 802 058c 17050000 		lla	a0,.LC17
 802      13050500 
 803 0594 97000000 		call	_Z11printStringPKc@plt
 803      E7800000 
 804              	.LVL100:
 805 059c 6F00C000 		j	.L43
 806              	.L42:
 107:test/System_Mode_test.cpp **** 
 108:test/System_Mode_test.cpp ****     while (!(finishedA && finishedB && finishedC && finishedD)) {
 109:test/System_Mode_test.cpp ****         thread_dispatch();
 807              		.loc 1 109 9 is_stmt 1
 808              		.loc 1 109 24 is_stmt 0
 809 05a0 97000000 		call	_Z15thread_dispatchv@plt
 809      E7800000 
 810              	.LVL101:
 811              	.L43:
 108:test/System_Mode_test.cpp ****         thread_dispatch();
 812              		.loc 1 108 5 is_stmt 1
 108:test/System_Mode_test.cpp ****         thread_dispatch();
 813              		.loc 1 108 12
 108:test/System_Mode_test.cpp ****         thread_dispatch();
 814              		.loc 1 108 14 is_stmt 0
 815 05a8 97070000 		lbu	a5,.LANCHOR0+3
 815      83C70700 
 108:test/System_Mode_test.cpp ****         thread_dispatch();
 816              		.loc 1 108 12
 817 05b0 E38807FE 		beqz	a5,.L42
 108:test/System_Mode_test.cpp ****         thread_dispatch();
 818              		.loc 1 108 27 discriminator 2
 819 05b4 97070000 		lbu	a5,.LANCHOR0+2
 819      83C70700 
 108:test/System_Mode_test.cpp ****         thread_dispatch();
 820              		.loc 1 108 24 discriminator 2
 821 05bc E38207FE 		beqz	a5,.L42
 108:test/System_Mode_test.cpp ****         thread_dispatch();
 822              		.loc 1 108 40 discriminator 4
 823 05c0 97070000 		lbu	a5,.LANCHOR0+1
 823      83C70700 
 108:test/System_Mode_test.cpp ****         thread_dispatch();
 824              		.loc 1 108 37 discriminator 4
 825 05c8 E38C07FC 		beqz	a5,.L42
 108:test/System_Mode_test.cpp ****         thread_dispatch();
 826              		.loc 1 108 53 discriminator 6
 827 05cc 97070000 		lbu	a5,.LANCHOR0
 827      83C70700 
 108:test/System_Mode_test.cpp ****         thread_dispatch();
 828              		.loc 1 108 12 discriminator 6
 829 05d4 E38607FC 		beqz	a5,.L42
 110:test/System_Mode_test.cpp ****     }
 111:test/System_Mode_test.cpp **** 
 112:test/System_Mode_test.cpp **** }
GAS LISTING /tmp/cc3YfTQl.s 			page 22


 830              		.loc 1 112 1
 831 05d8 83308102 		ld	ra,40(sp)
 832              		.cfi_restore 1
 833 05dc 03340102 		ld	s0,32(sp)
 834              		.cfi_restore 8
 835              		.cfi_def_cfa 2, 48
 836 05e0 13010103 		addi	sp,sp,48
 837              		.cfi_def_cfa_offset 0
 838 05e4 67800000 		jr	ra
 839              		.cfi_endproc
 840              	.LFE38:
 842              		.bss
 843              		.set	.LANCHOR0,. + 0
 846              	_ZL9finishedD:
 847 0000 00       		.zero	1
 850              	_ZL9finishedC:
 851 0001 00       		.zero	1
 854              	_ZL9finishedB:
 855 0002 00       		.zero	1
 858              	_ZL9finishedA:
 859 0003 00       		.zero	1
 860              		.text
 861              	.Letext0:
 862              		.file 2 "test/../h/../lib/hw.h"
 863              		.file 3 "test/../h/../h/TCB.hpp"
 864              		.file 4 "test/../h/syscall_c.hpp"
 865              		.file 5 "test/printing.hpp"
GAS LISTING /tmp/cc3YfTQl.s 			page 23

