GAS LISTING /tmp/ccEDUVVt.s 			page 1


   1              		.file	"Threads_C_API_test.cpp"
   2              		.option pic
   3              		.option norelax
   4              		.text
   5              	.Ltext0:
   6              		.align	2
   8              	_ZL9fibonaccim:
   9              	.LFB33:
  10              		.file 1 "test/Threads_C_API_test.cpp"
   1:test/Threads_C_API_test.cpp **** 
   2:test/Threads_C_API_test.cpp **** #include "../h/syscall_c.hpp"
   3:test/Threads_C_API_test.cpp **** #include "Threads_C_API_test.hpp"
   4:test/Threads_C_API_test.cpp **** 
   5:test/Threads_C_API_test.cpp **** #include "printing.hpp"
   6:test/Threads_C_API_test.cpp **** 
   7:test/Threads_C_API_test.cpp **** static volatile bool finishedA = false;
   8:test/Threads_C_API_test.cpp **** static volatile bool finishedB = false;
   9:test/Threads_C_API_test.cpp **** static volatile bool finishedC = false;
  10:test/Threads_C_API_test.cpp **** static volatile bool finishedD = false;
  11:test/Threads_C_API_test.cpp **** 
  12:test/Threads_C_API_test.cpp **** static uint64 fibonacci(uint64 n) {
  11              		.loc 1 12 35
  12              		.cfi_startproc
  13              	.LVL0:
  14 0000 130101FE 		addi	sp,sp,-32
  15              		.cfi_def_cfa_offset 32
  16 0004 233C1100 		sd	ra,24(sp)
  17 0008 23388100 		sd	s0,16(sp)
  18 000c 23349100 		sd	s1,8(sp)
  19 0010 23302101 		sd	s2,0(sp)
  20              		.cfi_offset 1, -8
  21              		.cfi_offset 8, -16
  22              		.cfi_offset 9, -24
  23              		.cfi_offset 18, -32
  24 0014 13040102 		addi	s0,sp,32
  25              		.cfi_def_cfa 8, 0
  26 0018 93040500 		mv	s1,a0
  13:test/Threads_C_API_test.cpp ****     if (n == 0 || n == 1) { return n; }
  27              		.loc 1 13 5
  28 001c 93071000 		li	a5,1
  29 0020 63F8A702 		bleu	a0,a5,.L1
  14:test/Threads_C_API_test.cpp ****     if (n % 10 == 0) { thread_dispatch(); }
  30              		.loc 1 14 5
  31              		.loc 1 14 11 is_stmt 0
  32 0024 9307A000 		li	a5,10
  33 0028 B377F502 		remu	a5,a0,a5
  34              		.loc 1 14 5
  35 002c 638E0702 		beqz	a5,.L6
  36              	.LVL1:
  37              	.L3:
  15:test/Threads_C_API_test.cpp ****     return fibonacci(n - 1) + fibonacci(n - 2);
  38              		.loc 1 15 5 is_stmt 1
  39              		.loc 1 15 21 is_stmt 0
  40 0030 1385F4FF 		addi	a0,s1,-1
  41 0034 97000000 		call	_ZL9fibonaccim
  41      E7800000 
  42              	.LVL2:
GAS LISTING /tmp/ccEDUVVt.s 			page 2


  43 003c 13090500 		mv	s2,a0
  44              		.loc 1 15 40
  45 0040 1385E4FF 		addi	a0,s1,-2
  46 0044 97000000 		call	_ZL9fibonaccim
  46      E7800000 
  47              	.LVL3:
  48              		.loc 1 15 46
  49 004c 3305A900 		add	a0,s2,a0
  50              	.L1:
  16:test/Threads_C_API_test.cpp **** }
  51              		.loc 1 16 1
  52 0050 83308101 		ld	ra,24(sp)
  53              		.cfi_remember_state
  54              		.cfi_restore 1
  55 0054 03340101 		ld	s0,16(sp)
  56              		.cfi_restore 8
  57              		.cfi_def_cfa 2, 32
  58 0058 83348100 		ld	s1,8(sp)
  59              		.cfi_restore 9
  60              	.LVL4:
  61 005c 03390100 		ld	s2,0(sp)
  62              		.cfi_restore 18
  63 0060 13010102 		addi	sp,sp,32
  64              		.cfi_def_cfa_offset 0
  65 0064 67800000 		jr	ra
  66              	.LVL5:
  67              	.L6:
  68              		.cfi_restore_state
  14:test/Threads_C_API_test.cpp ****     if (n % 10 == 0) { thread_dispatch(); }
  69              		.loc 1 14 24 is_stmt 1 discriminator 1
  14:test/Threads_C_API_test.cpp ****     if (n % 10 == 0) { thread_dispatch(); }
  70              		.loc 1 14 39 is_stmt 0 discriminator 1
  71 0068 97000000 		call	_Z15thread_dispatchv@plt
  71      E7800000 
  72              	.LVL6:
  73 0070 6FF01FFC 		j	.L3
  74              		.cfi_endproc
  75              	.LFE33:
  77              		.section	.rodata.str1.8,"aMS",@progbits,1
  78              		.align	3
  79              	.LC0:
  80 0000 443A2069 		.string	"D: i="
  80      3D00
  81 0006 0000     		.align	3
  82              	.LC1:
  83 0008 0A00     		.string	"\n"
  84 000a 00000000 		.align	3
  84      0000
  85              	.LC2:
  86 0010 443A2064 		.string	"D: dispatch\n"
  86      69737061 
  86      7463680A 
  86      00
  87 001d 000000   		.align	3
  88              	.LC3:
  89 0020 443A2066 		.string	"D: fibonaci="
  89      69626F6E 
GAS LISTING /tmp/ccEDUVVt.s 			page 3


  89      6163693D 
  89      00
  90 002d 000000   		.align	3
  91              	.LC4:
  92 0030 44206669 		.string	"D finished!\n"
  92      6E697368 
  92      6564210A 
  92      00
  93              		.text
  94              		.align	2
  96              	_ZL11workerBodyDPv:
  97              	.LFB37:
  17:test/Threads_C_API_test.cpp **** 
  18:test/Threads_C_API_test.cpp **** static void workerBodyA(void* arg) {
  19:test/Threads_C_API_test.cpp ****     for (uint64 i = 0; i < 10; i++) {
  20:test/Threads_C_API_test.cpp ****         printString("A: i="); printInt(i); printString("\n");
  21:test/Threads_C_API_test.cpp ****         for (uint64 j = 0; j < 10000; j++) {
  22:test/Threads_C_API_test.cpp ****             for (uint64 k = 0; k < 30000; k++) { /* busy wait */ }
  23:test/Threads_C_API_test.cpp ****             thread_dispatch();
  24:test/Threads_C_API_test.cpp ****         }
  25:test/Threads_C_API_test.cpp ****     }
  26:test/Threads_C_API_test.cpp ****     printString("A finished!\n");
  27:test/Threads_C_API_test.cpp ****     finishedA = true;
  28:test/Threads_C_API_test.cpp **** }
  29:test/Threads_C_API_test.cpp **** 
  30:test/Threads_C_API_test.cpp **** static void workerBodyB(void* arg) {
  31:test/Threads_C_API_test.cpp ****     for (uint64 i = 0; i < 16; i++) {
  32:test/Threads_C_API_test.cpp ****         printString("B: i="); printInt(i); printString("\n");
  33:test/Threads_C_API_test.cpp ****         for (uint64 j = 0; j < 10000; j++) {
  34:test/Threads_C_API_test.cpp ****             for (uint64 k = 0; k < 30000; k++) { /* busy wait */ }
  35:test/Threads_C_API_test.cpp ****             thread_dispatch();
  36:test/Threads_C_API_test.cpp ****         }
  37:test/Threads_C_API_test.cpp ****     }
  38:test/Threads_C_API_test.cpp ****     printString("B finished!\n");
  39:test/Threads_C_API_test.cpp ****     finishedB = true;
  40:test/Threads_C_API_test.cpp ****     thread_dispatch();
  41:test/Threads_C_API_test.cpp **** }
  42:test/Threads_C_API_test.cpp **** 
  43:test/Threads_C_API_test.cpp **** static void workerBodyC(void* arg) {
  44:test/Threads_C_API_test.cpp ****     uint8 i = 0;
  45:test/Threads_C_API_test.cpp ****     for (; i < 3; i++) {
  46:test/Threads_C_API_test.cpp ****         printString("C: i="); printInt(i); printString("\n");
  47:test/Threads_C_API_test.cpp ****     }
  48:test/Threads_C_API_test.cpp **** 
  49:test/Threads_C_API_test.cpp ****     printString("C: dispatch\n");
  50:test/Threads_C_API_test.cpp ****     __asm__ ("li t1, 7");
  51:test/Threads_C_API_test.cpp ****     thread_dispatch();
  52:test/Threads_C_API_test.cpp **** 
  53:test/Threads_C_API_test.cpp ****     uint64 t1 = 0;
  54:test/Threads_C_API_test.cpp ****     __asm__ ("mv %[t1], t1" : [t1] "=r"(t1));
  55:test/Threads_C_API_test.cpp **** 
  56:test/Threads_C_API_test.cpp ****     printString("C: t1="); printInt(t1); printString("\n");
  57:test/Threads_C_API_test.cpp **** 
  58:test/Threads_C_API_test.cpp ****     uint64 result = fibonacci(12);
  59:test/Threads_C_API_test.cpp ****     printString("C: fibonaci="); printInt(result); printString("\n");
  60:test/Threads_C_API_test.cpp **** 
  61:test/Threads_C_API_test.cpp ****     for (; i < 6; i++) {
GAS LISTING /tmp/ccEDUVVt.s 			page 4


  62:test/Threads_C_API_test.cpp ****         printString("C: i="); printInt(i); printString("\n");
  63:test/Threads_C_API_test.cpp ****     }
  64:test/Threads_C_API_test.cpp **** 
  65:test/Threads_C_API_test.cpp ****     printString("C finished!\n");
  66:test/Threads_C_API_test.cpp ****     finishedC = true;
  67:test/Threads_C_API_test.cpp ****     thread_dispatch();
  68:test/Threads_C_API_test.cpp **** }
  69:test/Threads_C_API_test.cpp **** 
  70:test/Threads_C_API_test.cpp **** static void workerBodyD(void* arg) {
  98              		.loc 1 70 36 is_stmt 1
  99              		.cfi_startproc
 100              	.LVL7:
 101 0074 130101FE 		addi	sp,sp,-32
 102              		.cfi_def_cfa_offset 32
 103 0078 233C1100 		sd	ra,24(sp)
 104 007c 23388100 		sd	s0,16(sp)
 105 0080 23349100 		sd	s1,8(sp)
 106 0084 23302101 		sd	s2,0(sp)
 107              		.cfi_offset 1, -8
 108              		.cfi_offset 8, -16
 109              		.cfi_offset 9, -24
 110              		.cfi_offset 18, -32
 111 0088 13040102 		addi	s0,sp,32
 112              		.cfi_def_cfa 8, 0
  71:test/Threads_C_API_test.cpp ****     uint8 i = 10;
 113              		.loc 1 71 5
 114              	.LVL8:
 115              		.loc 1 71 11 is_stmt 0
 116 008c 9304A000 		li	s1,10
 117 0090 6F000004 		j	.L9
 118              	.LVL9:
 119              	.L13:
  72:test/Threads_C_API_test.cpp ****     for (; i < 13; i++) {
  73:test/Threads_C_API_test.cpp ****         printString("D: i="); printInt(i); printString("\n");
 120              		.loc 1 73 9 is_stmt 1 discriminator 1
 121              		.loc 1 73 20 is_stmt 0 discriminator 1
 122 0094 17050000 		lla	a0,.LC0
 122      13050500 
 123 009c 97000000 		call	_Z11printStringPKc@plt
 123      E7800000 
 124              	.LVL10:
 125              		.loc 1 73 31 is_stmt 1 discriminator 1
 126              		.loc 1 73 39 is_stmt 0 discriminator 1
 127 00a4 13060000 		li	a2,0
 128 00a8 9305A000 		li	a1,10
 129 00ac 13850400 		mv	a0,s1
 130 00b0 97000000 		call	_Z8printIntiii@plt
 130      E7800000 
 131              	.LVL11:
 132              		.loc 1 73 44 is_stmt 1 discriminator 1
 133              		.loc 1 73 55 is_stmt 0 discriminator 1
 134 00b8 17050000 		lla	a0,.LC1
 134      13050500 
 135 00c0 97000000 		call	_Z11printStringPKc@plt
 135      E7800000 
 136              	.LVL12:
  72:test/Threads_C_API_test.cpp ****     for (; i < 13; i++) {
GAS LISTING /tmp/ccEDUVVt.s 			page 5


 137              		.loc 1 72 5 is_stmt 1 discriminator 1
 138 00c8 9B841400 		addiw	s1,s1,1
 139              	.LVL13:
 140 00cc 93F4F40F 		andi	s1,s1,0xff
 141              	.LVL14:
 142              	.L9:
  72:test/Threads_C_API_test.cpp ****     for (; i < 13; i++) {
 143              		.loc 1 72 5 discriminator 2
  72:test/Threads_C_API_test.cpp ****     for (; i < 13; i++) {
 144              		.loc 1 72 14 discriminator 2
 145 00d0 9307C000 		li	a5,12
 146 00d4 E3F097FC 		bleu	s1,a5,.L13
  74:test/Threads_C_API_test.cpp ****     }
  75:test/Threads_C_API_test.cpp **** 
  76:test/Threads_C_API_test.cpp ****     printString("D: dispatch\n");
 147              		.loc 1 76 5
 148              		.loc 1 76 16 is_stmt 0
 149 00d8 17050000 		lla	a0,.LC2
 149      13050500 
 150 00e0 97000000 		call	_Z11printStringPKc@plt
 150      E7800000 
 151              	.LVL15:
  77:test/Threads_C_API_test.cpp ****     __asm__ ("li t1, 5");
 152              		.loc 1 77 5 is_stmt 1
 153              		.loc 1 77 25 is_stmt 0
 154              	#APP
 155              	# 77 "test/Threads_C_API_test.cpp" 1
  78              	    thread_dispatch();
 156              		li t1, 5
 157              	# 0 "" 2
 158              		.loc 1 78 5 is_stmt 1
 159              		.loc 1 78 20 is_stmt 0
 160              	#NO_APP
 161 00ec 97000000 		call	_Z15thread_dispatchv@plt
 161      E7800000 
 162              	.LVL16:
  79:test/Threads_C_API_test.cpp **** 
  80:test/Threads_C_API_test.cpp ****     uint64 result = fibonacci(16);
 163              		.loc 1 80 5 is_stmt 1
 164              		.loc 1 80 30 is_stmt 0
 165 00f4 13050001 		li	a0,16
 166 00f8 97000000 		call	_ZL9fibonaccim
 166      E7800000 
 167              	.LVL17:
 168 0100 13090500 		mv	s2,a0
 169              	.LVL18:
  81:test/Threads_C_API_test.cpp ****     printString("D: fibonaci="); printInt(result); printString("\n");
 170              		.loc 1 81 5 is_stmt 1
 171              		.loc 1 81 16 is_stmt 0
 172 0104 17050000 		lla	a0,.LC3
 172      13050500 
 173              	.LVL19:
 174 010c 97000000 		call	_Z11printStringPKc@plt
 174      E7800000 
 175              	.LVL20:
 176              		.loc 1 81 34 is_stmt 1
 177              		.loc 1 81 42 is_stmt 0
GAS LISTING /tmp/ccEDUVVt.s 			page 6


 178 0114 13060000 		li	a2,0
 179 0118 9305A000 		li	a1,10
 180 011c 1B050900 		sext.w	a0,s2
 181 0120 97000000 		call	_Z8printIntiii@plt
 181      E7800000 
 182              	.LVL21:
 183              		.loc 1 81 52 is_stmt 1
 184              		.loc 1 81 63 is_stmt 0
 185 0128 17050000 		lla	a0,.LC1
 185      13050500 
 186 0130 97000000 		call	_Z11printStringPKc@plt
 186      E7800000 
 187              	.LVL22:
 188 0138 6F000004 		j	.L11
 189              	.L14:
  82:test/Threads_C_API_test.cpp **** 
  83:test/Threads_C_API_test.cpp ****     for (; i < 16; i++) {
  84:test/Threads_C_API_test.cpp ****         printString("D: i="); printInt(i); printString("\n");
 190              		.loc 1 84 9 is_stmt 1 discriminator 1
 191              		.loc 1 84 20 is_stmt 0 discriminator 1
 192 013c 17050000 		lla	a0,.LC0
 192      13050500 
 193 0144 97000000 		call	_Z11printStringPKc@plt
 193      E7800000 
 194              	.LVL23:
 195              		.loc 1 84 31 is_stmt 1 discriminator 1
 196              		.loc 1 84 39 is_stmt 0 discriminator 1
 197 014c 13060000 		li	a2,0
 198 0150 9305A000 		li	a1,10
 199 0154 13850400 		mv	a0,s1
 200 0158 97000000 		call	_Z8printIntiii@plt
 200      E7800000 
 201              	.LVL24:
 202              		.loc 1 84 44 is_stmt 1 discriminator 1
 203              		.loc 1 84 55 is_stmt 0 discriminator 1
 204 0160 17050000 		lla	a0,.LC1
 204      13050500 
 205 0168 97000000 		call	_Z11printStringPKc@plt
 205      E7800000 
 206              	.LVL25:
  83:test/Threads_C_API_test.cpp ****         printString("D: i="); printInt(i); printString("\n");
 207              		.loc 1 83 5 is_stmt 1 discriminator 1
 208 0170 9B841400 		addiw	s1,s1,1
 209              	.LVL26:
 210 0174 93F4F40F 		andi	s1,s1,0xff
 211              	.LVL27:
 212              	.L11:
  83:test/Threads_C_API_test.cpp ****         printString("D: i="); printInt(i); printString("\n");
 213              		.loc 1 83 5 discriminator 2
  83:test/Threads_C_API_test.cpp ****         printString("D: i="); printInt(i); printString("\n");
 214              		.loc 1 83 14 discriminator 2
 215 0178 9307F000 		li	a5,15
 216 017c E3F097FC 		bleu	s1,a5,.L14
  85:test/Threads_C_API_test.cpp ****     }
  86:test/Threads_C_API_test.cpp **** 
  87:test/Threads_C_API_test.cpp ****     printString("D finished!\n");
 217              		.loc 1 87 5
GAS LISTING /tmp/ccEDUVVt.s 			page 7


 218              		.loc 1 87 16 is_stmt 0
 219 0180 17050000 		lla	a0,.LC4
 219      13050500 
 220 0188 97000000 		call	_Z11printStringPKc@plt
 220      E7800000 
 221              	.LVL28:
  88:test/Threads_C_API_test.cpp ****     finishedD = true;
 222              		.loc 1 88 5 is_stmt 1
 223              		.loc 1 88 15 is_stmt 0
 224 0190 93071000 		li	a5,1
 225 0194 17070000 		sb	a5,.LANCHOR0,a4
 225      2300F700 
  89:test/Threads_C_API_test.cpp ****     thread_dispatch();
 226              		.loc 1 89 5 is_stmt 1
 227              		.loc 1 89 20 is_stmt 0
 228 019c 97000000 		call	_Z15thread_dispatchv@plt
 228      E7800000 
 229              	.LVL29:
  90:test/Threads_C_API_test.cpp **** }
 230              		.loc 1 90 1
 231 01a4 83308101 		ld	ra,24(sp)
 232              		.cfi_restore 1
 233 01a8 03340101 		ld	s0,16(sp)
 234              		.cfi_restore 8
 235              		.cfi_def_cfa 2, 32
 236 01ac 83348100 		ld	s1,8(sp)
 237              		.cfi_restore 9
 238              	.LVL30:
 239 01b0 03390100 		ld	s2,0(sp)
 240              		.cfi_restore 18
 241              	.LVL31:
 242 01b4 13010102 		addi	sp,sp,32
 243              		.cfi_def_cfa_offset 0
 244 01b8 67800000 		jr	ra
 245              		.cfi_endproc
 246              	.LFE37:
 248              		.section	.rodata.str1.8
 249 003d 000000   		.align	3
 250              	.LC5:
 251 0040 433A2069 		.string	"C: i="
 251      3D00
 252 0046 0000     		.align	3
 253              	.LC6:
 254 0048 433A2064 		.string	"C: dispatch\n"
 254      69737061 
 254      7463680A 
 254      00
 255 0055 000000   		.align	3
 256              	.LC7:
 257 0058 433A2074 		.string	"C: t1="
 257      313D00
 258 005f 00       		.align	3
 259              	.LC8:
 260 0060 433A2066 		.string	"C: fibonaci="
 260      69626F6E 
 260      6163693D 
 260      00
GAS LISTING /tmp/ccEDUVVt.s 			page 8


 261 006d 000000   		.align	3
 262              	.LC9:
 263 0070 43206669 		.string	"C finished!\n"
 263      6E697368 
 263      6564210A 
 263      00
 264              		.text
 265              		.align	2
 267              	_ZL11workerBodyCPv:
 268              	.LFB36:
  43:test/Threads_C_API_test.cpp ****     uint8 i = 0;
 269              		.loc 1 43 36 is_stmt 1
 270              		.cfi_startproc
 271              	.LVL32:
 272 01bc 130101FE 		addi	sp,sp,-32
 273              		.cfi_def_cfa_offset 32
 274 01c0 233C1100 		sd	ra,24(sp)
 275 01c4 23388100 		sd	s0,16(sp)
 276 01c8 23349100 		sd	s1,8(sp)
 277 01cc 23302101 		sd	s2,0(sp)
 278              		.cfi_offset 1, -8
 279              		.cfi_offset 8, -16
 280              		.cfi_offset 9, -24
 281              		.cfi_offset 18, -32
 282 01d0 13040102 		addi	s0,sp,32
 283              		.cfi_def_cfa 8, 0
  44:test/Threads_C_API_test.cpp ****     for (; i < 3; i++) {
 284              		.loc 1 44 5
 285              	.LVL33:
  44:test/Threads_C_API_test.cpp ****     for (; i < 3; i++) {
 286              		.loc 1 44 11 is_stmt 0
 287 01d4 93040000 		li	s1,0
 288 01d8 6F000004 		j	.L17
 289              	.LVL34:
 290              	.L21:
  46:test/Threads_C_API_test.cpp ****     }
 291              		.loc 1 46 9 is_stmt 1 discriminator 1
  46:test/Threads_C_API_test.cpp ****     }
 292              		.loc 1 46 20 is_stmt 0 discriminator 1
 293 01dc 17050000 		lla	a0,.LC5
 293      13050500 
 294 01e4 97000000 		call	_Z11printStringPKc@plt
 294      E7800000 
 295              	.LVL35:
  46:test/Threads_C_API_test.cpp ****     }
 296              		.loc 1 46 31 is_stmt 1 discriminator 1
  46:test/Threads_C_API_test.cpp ****     }
 297              		.loc 1 46 39 is_stmt 0 discriminator 1
 298 01ec 13060000 		li	a2,0
 299 01f0 9305A000 		li	a1,10
 300 01f4 13850400 		mv	a0,s1
 301 01f8 97000000 		call	_Z8printIntiii@plt
 301      E7800000 
 302              	.LVL36:
  46:test/Threads_C_API_test.cpp ****     }
 303              		.loc 1 46 44 is_stmt 1 discriminator 1
  46:test/Threads_C_API_test.cpp ****     }
GAS LISTING /tmp/ccEDUVVt.s 			page 9


 304              		.loc 1 46 55 is_stmt 0 discriminator 1
 305 0200 17050000 		lla	a0,.LC1
 305      13050500 
 306 0208 97000000 		call	_Z11printStringPKc@plt
 306      E7800000 
 307              	.LVL37:
  45:test/Threads_C_API_test.cpp ****         printString("C: i="); printInt(i); printString("\n");
 308              		.loc 1 45 5 is_stmt 1 discriminator 1
 309 0210 9B841400 		addiw	s1,s1,1
 310              	.LVL38:
 311 0214 93F4F40F 		andi	s1,s1,0xff
 312              	.LVL39:
 313              	.L17:
  45:test/Threads_C_API_test.cpp ****         printString("C: i="); printInt(i); printString("\n");
 314              		.loc 1 45 5 discriminator 2
  45:test/Threads_C_API_test.cpp ****         printString("C: i="); printInt(i); printString("\n");
 315              		.loc 1 45 14 discriminator 2
 316 0218 93072000 		li	a5,2
 317 021c E3F097FC 		bleu	s1,a5,.L21
  49:test/Threads_C_API_test.cpp ****     __asm__ ("li t1, 7");
 318              		.loc 1 49 5
  49:test/Threads_C_API_test.cpp ****     __asm__ ("li t1, 7");
 319              		.loc 1 49 16 is_stmt 0
 320 0220 17050000 		lla	a0,.LC6
 320      13050500 
 321 0228 97000000 		call	_Z11printStringPKc@plt
 321      E7800000 
 322              	.LVL40:
  50:test/Threads_C_API_test.cpp ****     thread_dispatch();
 323              		.loc 1 50 5 is_stmt 1
  50:test/Threads_C_API_test.cpp ****     thread_dispatch();
 324              		.loc 1 50 25 is_stmt 0
 325              	#APP
 326              	# 50 "test/Threads_C_API_test.cpp" 1
  51:test/Threads_C_API_test.cpp **** 
 327              		li t1, 7
 328              	# 0 "" 2
 329              		.loc 1 51 5 is_stmt 1
  51:test/Threads_C_API_test.cpp **** 
 330              		.loc 1 51 20 is_stmt 0
 331              	#NO_APP
 332 0234 97000000 		call	_Z15thread_dispatchv@plt
 332      E7800000 
 333              	.LVL41:
  53:test/Threads_C_API_test.cpp ****     __asm__ ("mv %[t1], t1" : [t1] "=r"(t1));
 334              		.loc 1 53 5 is_stmt 1
  54:test/Threads_C_API_test.cpp **** 
 335              		.loc 1 54 5
  54:test/Threads_C_API_test.cpp **** 
 336              		.loc 1 54 45 is_stmt 0
 337              	#APP
 338              	# 54 "test/Threads_C_API_test.cpp" 1
 339              		mv s2, t1
 340              	# 0 "" 2
 341              	.LVL42:
  56:test/Threads_C_API_test.cpp **** 
 342              		.loc 1 56 5 is_stmt 1
GAS LISTING /tmp/ccEDUVVt.s 			page 10


  56:test/Threads_C_API_test.cpp **** 
 343              		.loc 1 56 16 is_stmt 0
 344              	#NO_APP
 345 0240 17050000 		lla	a0,.LC7
 345      13050500 
 346 0248 97000000 		call	_Z11printStringPKc@plt
 346      E7800000 
 347              	.LVL43:
  56:test/Threads_C_API_test.cpp **** 
 348              		.loc 1 56 28 is_stmt 1
  56:test/Threads_C_API_test.cpp **** 
 349              		.loc 1 56 36 is_stmt 0
 350 0250 13060000 		li	a2,0
 351 0254 9305A000 		li	a1,10
 352 0258 1B050900 		sext.w	a0,s2
 353 025c 97000000 		call	_Z8printIntiii@plt
 353      E7800000 
 354              	.LVL44:
  56:test/Threads_C_API_test.cpp **** 
 355              		.loc 1 56 42 is_stmt 1
  56:test/Threads_C_API_test.cpp **** 
 356              		.loc 1 56 53 is_stmt 0
 357 0264 17050000 		lla	a0,.LC1
 357      13050500 
 358 026c 97000000 		call	_Z11printStringPKc@plt
 358      E7800000 
 359              	.LVL45:
  58:test/Threads_C_API_test.cpp ****     printString("C: fibonaci="); printInt(result); printString("\n");
 360              		.loc 1 58 5 is_stmt 1
  58:test/Threads_C_API_test.cpp ****     printString("C: fibonaci="); printInt(result); printString("\n");
 361              		.loc 1 58 30 is_stmt 0
 362 0274 1305C000 		li	a0,12
 363 0278 97000000 		call	_ZL9fibonaccim
 363      E7800000 
 364              	.LVL46:
 365 0280 13090500 		mv	s2,a0
 366              	.LVL47:
  59:test/Threads_C_API_test.cpp **** 
 367              		.loc 1 59 5 is_stmt 1
  59:test/Threads_C_API_test.cpp **** 
 368              		.loc 1 59 16 is_stmt 0
 369 0284 17050000 		lla	a0,.LC8
 369      13050500 
 370              	.LVL48:
 371 028c 97000000 		call	_Z11printStringPKc@plt
 371      E7800000 
 372              	.LVL49:
  59:test/Threads_C_API_test.cpp **** 
 373              		.loc 1 59 34 is_stmt 1
  59:test/Threads_C_API_test.cpp **** 
 374              		.loc 1 59 42 is_stmt 0
 375 0294 13060000 		li	a2,0
 376 0298 9305A000 		li	a1,10
 377 029c 1B050900 		sext.w	a0,s2
 378 02a0 97000000 		call	_Z8printIntiii@plt
 378      E7800000 
 379              	.LVL50:
GAS LISTING /tmp/ccEDUVVt.s 			page 11


  59:test/Threads_C_API_test.cpp **** 
 380              		.loc 1 59 52 is_stmt 1
  59:test/Threads_C_API_test.cpp **** 
 381              		.loc 1 59 63 is_stmt 0
 382 02a8 17050000 		lla	a0,.LC1
 382      13050500 
 383 02b0 97000000 		call	_Z11printStringPKc@plt
 383      E7800000 
 384              	.LVL51:
 385 02b8 6F000004 		j	.L19
 386              	.L22:
  62:test/Threads_C_API_test.cpp ****     }
 387              		.loc 1 62 9 is_stmt 1 discriminator 1
  62:test/Threads_C_API_test.cpp ****     }
 388              		.loc 1 62 20 is_stmt 0 discriminator 1
 389 02bc 17050000 		lla	a0,.LC5
 389      13050500 
 390 02c4 97000000 		call	_Z11printStringPKc@plt
 390      E7800000 
 391              	.LVL52:
  62:test/Threads_C_API_test.cpp ****     }
 392              		.loc 1 62 31 is_stmt 1 discriminator 1
  62:test/Threads_C_API_test.cpp ****     }
 393              		.loc 1 62 39 is_stmt 0 discriminator 1
 394 02cc 13060000 		li	a2,0
 395 02d0 9305A000 		li	a1,10
 396 02d4 13850400 		mv	a0,s1
 397 02d8 97000000 		call	_Z8printIntiii@plt
 397      E7800000 
 398              	.LVL53:
  62:test/Threads_C_API_test.cpp ****     }
 399              		.loc 1 62 44 is_stmt 1 discriminator 1
  62:test/Threads_C_API_test.cpp ****     }
 400              		.loc 1 62 55 is_stmt 0 discriminator 1
 401 02e0 17050000 		lla	a0,.LC1
 401      13050500 
 402 02e8 97000000 		call	_Z11printStringPKc@plt
 402      E7800000 
 403              	.LVL54:
  61:test/Threads_C_API_test.cpp ****         printString("C: i="); printInt(i); printString("\n");
 404              		.loc 1 61 5 is_stmt 1 discriminator 1
 405 02f0 9B841400 		addiw	s1,s1,1
 406              	.LVL55:
 407 02f4 93F4F40F 		andi	s1,s1,0xff
 408              	.LVL56:
 409              	.L19:
  61:test/Threads_C_API_test.cpp ****         printString("C: i="); printInt(i); printString("\n");
 410              		.loc 1 61 5 discriminator 2
  61:test/Threads_C_API_test.cpp ****         printString("C: i="); printInt(i); printString("\n");
 411              		.loc 1 61 14 discriminator 2
 412 02f8 93075000 		li	a5,5
 413 02fc E3F097FC 		bleu	s1,a5,.L22
  65:test/Threads_C_API_test.cpp ****     finishedC = true;
 414              		.loc 1 65 5
  65:test/Threads_C_API_test.cpp ****     finishedC = true;
 415              		.loc 1 65 16 is_stmt 0
 416 0300 17050000 		lla	a0,.LC9
GAS LISTING /tmp/ccEDUVVt.s 			page 12


 416      13050500 
 417 0308 97000000 		call	_Z11printStringPKc@plt
 417      E7800000 
 418              	.LVL57:
  66:test/Threads_C_API_test.cpp ****     thread_dispatch();
 419              		.loc 1 66 5 is_stmt 1
  66:test/Threads_C_API_test.cpp ****     thread_dispatch();
 420              		.loc 1 66 15 is_stmt 0
 421 0310 93071000 		li	a5,1
 422 0314 17070000 		sb	a5,.LANCHOR0+1,a4
 422      2300F700 
  67:test/Threads_C_API_test.cpp **** }
 423              		.loc 1 67 5 is_stmt 1
  67:test/Threads_C_API_test.cpp **** }
 424              		.loc 1 67 20 is_stmt 0
 425 031c 97000000 		call	_Z15thread_dispatchv@plt
 425      E7800000 
 426              	.LVL58:
  68:test/Threads_C_API_test.cpp **** 
 427              		.loc 1 68 1
 428 0324 83308101 		ld	ra,24(sp)
 429              		.cfi_restore 1
 430 0328 03340101 		ld	s0,16(sp)
 431              		.cfi_restore 8
 432              		.cfi_def_cfa 2, 32
 433 032c 83348100 		ld	s1,8(sp)
 434              		.cfi_restore 9
 435              	.LVL59:
 436 0330 03390100 		ld	s2,0(sp)
 437              		.cfi_restore 18
 438              	.LVL60:
 439 0334 13010102 		addi	sp,sp,32
 440              		.cfi_def_cfa_offset 0
 441 0338 67800000 		jr	ra
 442              		.cfi_endproc
 443              	.LFE36:
 445              		.section	.rodata.str1.8
 446 007d 000000   		.align	3
 447              	.LC10:
 448 0080 423A2069 		.string	"B: i="
 448      3D00
 449 0086 0000     		.align	3
 450              	.LC11:
 451 0088 42206669 		.string	"B finished!\n"
 451      6E697368 
 451      6564210A 
 451      00
 452              		.text
 453              		.align	2
 455              	_ZL11workerBodyBPv:
 456              	.LFB35:
  30:test/Threads_C_API_test.cpp ****     for (uint64 i = 0; i < 16; i++) {
 457              		.loc 1 30 36 is_stmt 1
 458              		.cfi_startproc
 459              	.LVL61:
 460 033c 130101FE 		addi	sp,sp,-32
 461              		.cfi_def_cfa_offset 32
GAS LISTING /tmp/ccEDUVVt.s 			page 13


 462 0340 233C1100 		sd	ra,24(sp)
 463 0344 23388100 		sd	s0,16(sp)
 464 0348 23349100 		sd	s1,8(sp)
 465 034c 23302101 		sd	s2,0(sp)
 466              		.cfi_offset 1, -8
 467              		.cfi_offset 8, -16
 468              		.cfi_offset 9, -24
 469              		.cfi_offset 18, -32
 470 0350 13040102 		addi	s0,sp,32
 471              		.cfi_def_cfa 8, 0
  31:test/Threads_C_API_test.cpp ****         printString("B: i="); printInt(i); printString("\n");
 472              		.loc 1 31 5
 473              	.LVL62:
 474              	.LBB2:
  31:test/Threads_C_API_test.cpp ****         printString("B: i="); printInt(i); printString("\n");
 475              		.loc 1 31 17 is_stmt 0
 476 0354 13090000 		li	s2,0
 477 0358 6F008003 		j	.L29
 478              	.LVL63:
 479              	.L26:
 480              	.LBB3:
 481              	.LBB4:
 482              	.LBB5:
  35:test/Threads_C_API_test.cpp ****         }
 483              		.loc 1 35 13 is_stmt 1 discriminator 2
  35:test/Threads_C_API_test.cpp ****         }
 484              		.loc 1 35 28 is_stmt 0 discriminator 2
 485 035c 97000000 		call	_Z15thread_dispatchv@plt
 485      E7800000 
 486              	.LVL64:
 487              	.LBE5:
  33:test/Threads_C_API_test.cpp ****             for (uint64 k = 0; k < 30000; k++) { /* busy wait */ }
 488              		.loc 1 33 9 is_stmt 1 discriminator 2
 489 0364 93841400 		addi	s1,s1,1
 490              	.LVL65:
 491              	.L28:
  33:test/Threads_C_API_test.cpp ****             for (uint64 k = 0; k < 30000; k++) { /* busy wait */ }
 492              		.loc 1 33 30 discriminator 1
 493 0368 B7270000 		li	a5,8192
 494 036c 9387F770 		addi	a5,a5,1807
 495 0370 63EE9700 		bgtu	s1,a5,.L25
 496              	.LBB7:
 497              	.LBB6:
  34:test/Threads_C_API_test.cpp ****             thread_dispatch();
 498              		.loc 1 34 25 is_stmt 0
 499 0374 13070000 		li	a4,0
 500              	.L27:
 501              	.LVL66:
  34:test/Threads_C_API_test.cpp ****             thread_dispatch();
 502              		.loc 1 34 34 is_stmt 1 discriminator 3
 503 0378 B7770000 		li	a5,28672
 504 037c 9387F752 		addi	a5,a5,1327
 505 0380 E3EEE7FC 		bgtu	a4,a5,.L26
  34:test/Threads_C_API_test.cpp ****             thread_dispatch();
 506              		.loc 1 34 13 discriminator 2
 507 0384 13071700 		addi	a4,a4,1
 508              	.LVL67:
GAS LISTING /tmp/ccEDUVVt.s 			page 14


 509 0388 6FF01FFF 		j	.L27
 510              	.LVL68:
 511              	.L25:
 512              	.LBE6:
 513              	.LBE7:
 514              	.LBE4:
 515              	.LBE3:
  31:test/Threads_C_API_test.cpp ****         printString("B: i="); printInt(i); printString("\n");
 516              		.loc 1 31 5 discriminator 2
 517 038c 13091900 		addi	s2,s2,1
 518              	.LVL69:
 519              	.L29:
  31:test/Threads_C_API_test.cpp ****         printString("B: i="); printInt(i); printString("\n");
 520              		.loc 1 31 26 discriminator 1
 521 0390 9307F000 		li	a5,15
 522 0394 63E02705 		bgtu	s2,a5,.L24
 523              	.LBB9:
  32:test/Threads_C_API_test.cpp ****         for (uint64 j = 0; j < 10000; j++) {
 524              		.loc 1 32 9
  32:test/Threads_C_API_test.cpp ****         for (uint64 j = 0; j < 10000; j++) {
 525              		.loc 1 32 20 is_stmt 0
 526 0398 17050000 		lla	a0,.LC10
 526      13050500 
 527 03a0 97000000 		call	_Z11printStringPKc@plt
 527      E7800000 
 528              	.LVL70:
  32:test/Threads_C_API_test.cpp ****         for (uint64 j = 0; j < 10000; j++) {
 529              		.loc 1 32 31 is_stmt 1
  32:test/Threads_C_API_test.cpp ****         for (uint64 j = 0; j < 10000; j++) {
 530              		.loc 1 32 39 is_stmt 0
 531 03a8 13060000 		li	a2,0
 532 03ac 9305A000 		li	a1,10
 533 03b0 1B050900 		sext.w	a0,s2
 534 03b4 97000000 		call	_Z8printIntiii@plt
 534      E7800000 
 535              	.LVL71:
  32:test/Threads_C_API_test.cpp ****         for (uint64 j = 0; j < 10000; j++) {
 536              		.loc 1 32 44 is_stmt 1
  32:test/Threads_C_API_test.cpp ****         for (uint64 j = 0; j < 10000; j++) {
 537              		.loc 1 32 55 is_stmt 0
 538 03bc 17050000 		lla	a0,.LC1
 538      13050500 
 539 03c4 97000000 		call	_Z11printStringPKc@plt
 539      E7800000 
 540              	.LVL72:
  33:test/Threads_C_API_test.cpp ****             for (uint64 k = 0; k < 30000; k++) { /* busy wait */ }
 541              		.loc 1 33 9 is_stmt 1
 542              	.LBB8:
  33:test/Threads_C_API_test.cpp ****             for (uint64 k = 0; k < 30000; k++) { /* busy wait */ }
 543              		.loc 1 33 21 is_stmt 0
 544 03cc 93040000 		li	s1,0
 545 03d0 6FF09FF9 		j	.L28
 546              	.LVL73:
 547              	.L24:
 548              	.LBE8:
 549              	.LBE9:
 550              	.LBE2:
GAS LISTING /tmp/ccEDUVVt.s 			page 15


  38:test/Threads_C_API_test.cpp ****     finishedB = true;
 551              		.loc 1 38 5 is_stmt 1
  38:test/Threads_C_API_test.cpp ****     finishedB = true;
 552              		.loc 1 38 16 is_stmt 0
 553 03d4 17050000 		lla	a0,.LC11
 553      13050500 
 554 03dc 97000000 		call	_Z11printStringPKc@plt
 554      E7800000 
 555              	.LVL74:
  39:test/Threads_C_API_test.cpp ****     thread_dispatch();
 556              		.loc 1 39 5 is_stmt 1
  39:test/Threads_C_API_test.cpp ****     thread_dispatch();
 557              		.loc 1 39 15 is_stmt 0
 558 03e4 93071000 		li	a5,1
 559 03e8 17070000 		sb	a5,.LANCHOR0+2,a4
 559      2300F700 
  40:test/Threads_C_API_test.cpp **** }
 560              		.loc 1 40 5 is_stmt 1
  40:test/Threads_C_API_test.cpp **** }
 561              		.loc 1 40 20 is_stmt 0
 562 03f0 97000000 		call	_Z15thread_dispatchv@plt
 562      E7800000 
 563              	.LVL75:
  41:test/Threads_C_API_test.cpp **** 
 564              		.loc 1 41 1
 565 03f8 83308101 		ld	ra,24(sp)
 566              		.cfi_restore 1
 567 03fc 03340101 		ld	s0,16(sp)
 568              		.cfi_restore 8
 569              		.cfi_def_cfa 2, 32
 570 0400 83348100 		ld	s1,8(sp)
 571              		.cfi_restore 9
 572 0404 03390100 		ld	s2,0(sp)
 573              		.cfi_restore 18
 574              	.LVL76:
 575 0408 13010102 		addi	sp,sp,32
 576              		.cfi_def_cfa_offset 0
 577 040c 67800000 		jr	ra
 578              		.cfi_endproc
 579              	.LFE35:
 581              		.section	.rodata.str1.8
 582 0095 000000   		.align	3
 583              	.LC12:
 584 0098 413A2069 		.string	"A: i="
 584      3D00
 585 009e 0000     		.align	3
 586              	.LC13:
 587 00a0 41206669 		.string	"A finished!\n"
 587      6E697368 
 587      6564210A 
 587      00
 588              		.text
 589              		.align	2
 591              	_ZL11workerBodyAPv:
 592              	.LFB34:
  18:test/Threads_C_API_test.cpp ****     for (uint64 i = 0; i < 10; i++) {
 593              		.loc 1 18 36 is_stmt 1
GAS LISTING /tmp/ccEDUVVt.s 			page 16


 594              		.cfi_startproc
 595              	.LVL77:
 596 0410 130101FE 		addi	sp,sp,-32
 597              		.cfi_def_cfa_offset 32
 598 0414 233C1100 		sd	ra,24(sp)
 599 0418 23388100 		sd	s0,16(sp)
 600 041c 23349100 		sd	s1,8(sp)
 601 0420 23302101 		sd	s2,0(sp)
 602              		.cfi_offset 1, -8
 603              		.cfi_offset 8, -16
 604              		.cfi_offset 9, -24
 605              		.cfi_offset 18, -32
 606 0424 13040102 		addi	s0,sp,32
 607              		.cfi_def_cfa 8, 0
  19:test/Threads_C_API_test.cpp ****         printString("A: i="); printInt(i); printString("\n");
 608              		.loc 1 19 5
 609              	.LVL78:
 610              	.LBB10:
  19:test/Threads_C_API_test.cpp ****         printString("A: i="); printInt(i); printString("\n");
 611              		.loc 1 19 17 is_stmt 0
 612 0428 13090000 		li	s2,0
 613 042c 6F008003 		j	.L37
 614              	.LVL79:
 615              	.L34:
 616              	.LBB11:
 617              	.LBB12:
 618              	.LBB13:
  23:test/Threads_C_API_test.cpp ****         }
 619              		.loc 1 23 13 is_stmt 1 discriminator 2
  23:test/Threads_C_API_test.cpp ****         }
 620              		.loc 1 23 28 is_stmt 0 discriminator 2
 621 0430 97000000 		call	_Z15thread_dispatchv@plt
 621      E7800000 
 622              	.LVL80:
 623              	.LBE13:
  21:test/Threads_C_API_test.cpp ****             for (uint64 k = 0; k < 30000; k++) { /* busy wait */ }
 624              		.loc 1 21 9 is_stmt 1 discriminator 2
 625 0438 93841400 		addi	s1,s1,1
 626              	.LVL81:
 627              	.L36:
  21:test/Threads_C_API_test.cpp ****             for (uint64 k = 0; k < 30000; k++) { /* busy wait */ }
 628              		.loc 1 21 30 discriminator 1
 629 043c B7270000 		li	a5,8192
 630 0440 9387F770 		addi	a5,a5,1807
 631 0444 63EE9700 		bgtu	s1,a5,.L33
 632              	.LBB15:
 633              	.LBB14:
  22:test/Threads_C_API_test.cpp ****             thread_dispatch();
 634              		.loc 1 22 25 is_stmt 0
 635 0448 13070000 		li	a4,0
 636              	.L35:
 637              	.LVL82:
  22:test/Threads_C_API_test.cpp ****             thread_dispatch();
 638              		.loc 1 22 34 is_stmt 1 discriminator 3
 639 044c B7770000 		li	a5,28672
 640 0450 9387F752 		addi	a5,a5,1327
 641 0454 E3EEE7FC 		bgtu	a4,a5,.L34
GAS LISTING /tmp/ccEDUVVt.s 			page 17


  22:test/Threads_C_API_test.cpp ****             thread_dispatch();
 642              		.loc 1 22 13 discriminator 2
 643 0458 13071700 		addi	a4,a4,1
 644              	.LVL83:
 645 045c 6FF01FFF 		j	.L35
 646              	.LVL84:
 647              	.L33:
 648              	.LBE14:
 649              	.LBE15:
 650              	.LBE12:
 651              	.LBE11:
  19:test/Threads_C_API_test.cpp ****         printString("A: i="); printInt(i); printString("\n");
 652              		.loc 1 19 5 discriminator 2
 653 0460 13091900 		addi	s2,s2,1
 654              	.LVL85:
 655              	.L37:
  19:test/Threads_C_API_test.cpp ****         printString("A: i="); printInt(i); printString("\n");
 656              		.loc 1 19 26 discriminator 1
 657 0464 93079000 		li	a5,9
 658 0468 63E02705 		bgtu	s2,a5,.L32
 659              	.LBB17:
  20:test/Threads_C_API_test.cpp ****         for (uint64 j = 0; j < 10000; j++) {
 660              		.loc 1 20 9
  20:test/Threads_C_API_test.cpp ****         for (uint64 j = 0; j < 10000; j++) {
 661              		.loc 1 20 20 is_stmt 0
 662 046c 17050000 		lla	a0,.LC12
 662      13050500 
 663 0474 97000000 		call	_Z11printStringPKc@plt
 663      E7800000 
 664              	.LVL86:
  20:test/Threads_C_API_test.cpp ****         for (uint64 j = 0; j < 10000; j++) {
 665              		.loc 1 20 31 is_stmt 1
  20:test/Threads_C_API_test.cpp ****         for (uint64 j = 0; j < 10000; j++) {
 666              		.loc 1 20 39 is_stmt 0
 667 047c 13060000 		li	a2,0
 668 0480 9305A000 		li	a1,10
 669 0484 1B050900 		sext.w	a0,s2
 670 0488 97000000 		call	_Z8printIntiii@plt
 670      E7800000 
 671              	.LVL87:
  20:test/Threads_C_API_test.cpp ****         for (uint64 j = 0; j < 10000; j++) {
 672              		.loc 1 20 44 is_stmt 1
  20:test/Threads_C_API_test.cpp ****         for (uint64 j = 0; j < 10000; j++) {
 673              		.loc 1 20 55 is_stmt 0
 674 0490 17050000 		lla	a0,.LC1
 674      13050500 
 675 0498 97000000 		call	_Z11printStringPKc@plt
 675      E7800000 
 676              	.LVL88:
  21:test/Threads_C_API_test.cpp ****             for (uint64 k = 0; k < 30000; k++) { /* busy wait */ }
 677              		.loc 1 21 9 is_stmt 1
 678              	.LBB16:
  21:test/Threads_C_API_test.cpp ****             for (uint64 k = 0; k < 30000; k++) { /* busy wait */ }
 679              		.loc 1 21 21 is_stmt 0
 680 04a0 93040000 		li	s1,0
 681 04a4 6FF09FF9 		j	.L36
 682              	.LVL89:
GAS LISTING /tmp/ccEDUVVt.s 			page 18


 683              	.L32:
 684              	.LBE16:
 685              	.LBE17:
 686              	.LBE10:
  26:test/Threads_C_API_test.cpp ****     finishedA = true;
 687              		.loc 1 26 5 is_stmt 1
  26:test/Threads_C_API_test.cpp ****     finishedA = true;
 688              		.loc 1 26 16 is_stmt 0
 689 04a8 17050000 		lla	a0,.LC13
 689      13050500 
 690 04b0 97000000 		call	_Z11printStringPKc@plt
 690      E7800000 
 691              	.LVL90:
  27:test/Threads_C_API_test.cpp **** }
 692              		.loc 1 27 5 is_stmt 1
  27:test/Threads_C_API_test.cpp **** }
 693              		.loc 1 27 15 is_stmt 0
 694 04b8 93071000 		li	a5,1
 695 04bc 17070000 		sb	a5,.LANCHOR0+3,a4
 695      2300F700 
  28:test/Threads_C_API_test.cpp **** 
 696              		.loc 1 28 1
 697 04c4 83308101 		ld	ra,24(sp)
 698              		.cfi_restore 1
 699 04c8 03340101 		ld	s0,16(sp)
 700              		.cfi_restore 8
 701              		.cfi_def_cfa 2, 32
 702 04cc 83348100 		ld	s1,8(sp)
 703              		.cfi_restore 9
 704 04d0 03390100 		ld	s2,0(sp)
 705              		.cfi_restore 18
 706              	.LVL91:
 707 04d4 13010102 		addi	sp,sp,32
 708              		.cfi_def_cfa_offset 0
 709 04d8 67800000 		jr	ra
 710              		.cfi_endproc
 711              	.LFE34:
 713              		.section	.rodata.str1.8
 714 00ad 000000   		.align	3
 715              	.LC14:
 716 00b0 54687265 		.string	"ThreadA created\n"
 716      61644120 
 716      63726561 
 716      7465640A 
 716      00
 717 00c1 00000000 		.align	3
 717      000000
 718              	.LC15:
 719 00c8 54687265 		.string	"ThreadB created\n"
 719      61644220 
 719      63726561 
 719      7465640A 
 719      00
 720 00d9 00000000 		.align	3
 720      000000
 721              	.LC16:
 722 00e0 54687265 		.string	"ThreadC created\n"
GAS LISTING /tmp/ccEDUVVt.s 			page 19


 722      61644320 
 722      63726561 
 722      7465640A 
 722      00
 723 00f1 00000000 		.align	3
 723      000000
 724              	.LC17:
 725 00f8 54687265 		.string	"ThreadD created\n"
 725      61644420 
 725      63726561 
 725      7465640A 
 725      00
 726              		.text
 727              		.align	2
 728              		.globl	_Z18Threads_C_API_testv
 730              	_Z18Threads_C_API_testv:
 731              	.LFB38:
  91:test/Threads_C_API_test.cpp **** 
  92:test/Threads_C_API_test.cpp **** 
  93:test/Threads_C_API_test.cpp **** void Threads_C_API_test() {
 732              		.loc 1 93 27 is_stmt 1
 733              		.cfi_startproc
 734 04dc 130101FD 		addi	sp,sp,-48
 735              		.cfi_def_cfa_offset 48
 736 04e0 23341102 		sd	ra,40(sp)
 737 04e4 23308102 		sd	s0,32(sp)
 738              		.cfi_offset 1, -8
 739              		.cfi_offset 8, -16
 740 04e8 13040103 		addi	s0,sp,48
 741              		.cfi_def_cfa 8, 0
  94:test/Threads_C_API_test.cpp ****     thread_t threads[4];
 742              		.loc 1 94 5
  95:test/Threads_C_API_test.cpp ****     thread_create(&threads[0], workerBodyA, nullptr);
 743              		.loc 1 95 5
 744              		.loc 1 95 18 is_stmt 0
 745 04ec 13060000 		li	a2,0
 746 04f0 97050000 		lla	a1,_ZL11workerBodyAPv
 746      93850500 
 747 04f8 130504FD 		addi	a0,s0,-48
 748 04fc 97000000 		call	_Z13thread_createPP3TCBPFvPvES2_@plt
 748      E7800000 
 749              	.LVL92:
  96:test/Threads_C_API_test.cpp ****     printString("ThreadA created\n");
 750              		.loc 1 96 5 is_stmt 1
 751              		.loc 1 96 16 is_stmt 0
 752 0504 17050000 		lla	a0,.LC14
 752      13050500 
 753 050c 97000000 		call	_Z11printStringPKc@plt
 753      E7800000 
 754              	.LVL93:
  97:test/Threads_C_API_test.cpp **** 
  98:test/Threads_C_API_test.cpp ****     thread_create(&threads[1], workerBodyB, nullptr);
 755              		.loc 1 98 5 is_stmt 1
 756              		.loc 1 98 18 is_stmt 0
 757 0514 13060000 		li	a2,0
 758 0518 97050000 		lla	a1,_ZL11workerBodyBPv
 758      93850500 
GAS LISTING /tmp/ccEDUVVt.s 			page 20


 759 0520 130584FD 		addi	a0,s0,-40
 760 0524 97000000 		call	_Z13thread_createPP3TCBPFvPvES2_@plt
 760      E7800000 
 761              	.LVL94:
  99:test/Threads_C_API_test.cpp ****     printString("ThreadB created\n");
 762              		.loc 1 99 5 is_stmt 1
 763              		.loc 1 99 16 is_stmt 0
 764 052c 17050000 		lla	a0,.LC15
 764      13050500 
 765 0534 97000000 		call	_Z11printStringPKc@plt
 765      E7800000 
 766              	.LVL95:
 100:test/Threads_C_API_test.cpp **** 
 101:test/Threads_C_API_test.cpp ****     thread_create(&threads[2], workerBodyC, nullptr);
 767              		.loc 1 101 5 is_stmt 1
 768              		.loc 1 101 18 is_stmt 0
 769 053c 13060000 		li	a2,0
 770 0540 97050000 		lla	a1,_ZL11workerBodyCPv
 770      93850500 
 771 0548 130504FE 		addi	a0,s0,-32
 772 054c 97000000 		call	_Z13thread_createPP3TCBPFvPvES2_@plt
 772      E7800000 
 773              	.LVL96:
 102:test/Threads_C_API_test.cpp ****     printString("ThreadC created\n");
 774              		.loc 1 102 5 is_stmt 1
 775              		.loc 1 102 16 is_stmt 0
 776 0554 17050000 		lla	a0,.LC16
 776      13050500 
 777 055c 97000000 		call	_Z11printStringPKc@plt
 777      E7800000 
 778              	.LVL97:
 103:test/Threads_C_API_test.cpp **** 
 104:test/Threads_C_API_test.cpp ****     thread_create(&threads[3], workerBodyD, nullptr);
 779              		.loc 1 104 5 is_stmt 1
 780              		.loc 1 104 18 is_stmt 0
 781 0564 13060000 		li	a2,0
 782 0568 97050000 		lla	a1,_ZL11workerBodyDPv
 782      93850500 
 783 0570 130584FE 		addi	a0,s0,-24
 784 0574 97000000 		call	_Z13thread_createPP3TCBPFvPvES2_@plt
 784      E7800000 
 785              	.LVL98:
 105:test/Threads_C_API_test.cpp ****     printString("ThreadD created\n");
 786              		.loc 1 105 5 is_stmt 1
 787              		.loc 1 105 16 is_stmt 0
 788 057c 17050000 		lla	a0,.LC17
 788      13050500 
 789 0584 97000000 		call	_Z11printStringPKc@plt
 789      E7800000 
 790              	.LVL99:
 791 058c 6F00C000 		j	.L41
 792              	.L40:
 106:test/Threads_C_API_test.cpp **** 
 107:test/Threads_C_API_test.cpp ****     while (!(finishedA && finishedB && finishedC && finishedD)) {
 108:test/Threads_C_API_test.cpp ****         thread_dispatch();
 793              		.loc 1 108 9 is_stmt 1
 794              		.loc 1 108 24 is_stmt 0
GAS LISTING /tmp/ccEDUVVt.s 			page 21


 795 0590 97000000 		call	_Z15thread_dispatchv@plt
 795      E7800000 
 796              	.LVL100:
 797              	.L41:
 107:test/Threads_C_API_test.cpp ****         thread_dispatch();
 798              		.loc 1 107 5 is_stmt 1
 107:test/Threads_C_API_test.cpp ****         thread_dispatch();
 799              		.loc 1 107 12
 107:test/Threads_C_API_test.cpp ****         thread_dispatch();
 800              		.loc 1 107 14 is_stmt 0
 801 0598 97070000 		lbu	a5,.LANCHOR0+3
 801      83C70700 
 107:test/Threads_C_API_test.cpp ****         thread_dispatch();
 802              		.loc 1 107 12
 803 05a0 E38807FE 		beqz	a5,.L40
 107:test/Threads_C_API_test.cpp ****         thread_dispatch();
 804              		.loc 1 107 27 discriminator 2
 805 05a4 97070000 		lbu	a5,.LANCHOR0+2
 805      83C70700 
 107:test/Threads_C_API_test.cpp ****         thread_dispatch();
 806              		.loc 1 107 24 discriminator 2
 807 05ac E38207FE 		beqz	a5,.L40
 107:test/Threads_C_API_test.cpp ****         thread_dispatch();
 808              		.loc 1 107 40 discriminator 4
 809 05b0 97070000 		lbu	a5,.LANCHOR0+1
 809      83C70700 
 107:test/Threads_C_API_test.cpp ****         thread_dispatch();
 810              		.loc 1 107 37 discriminator 4
 811 05b8 E38C07FC 		beqz	a5,.L40
 107:test/Threads_C_API_test.cpp ****         thread_dispatch();
 812              		.loc 1 107 53 discriminator 6
 813 05bc 97070000 		lbu	a5,.LANCHOR0
 813      83C70700 
 107:test/Threads_C_API_test.cpp ****         thread_dispatch();
 814              		.loc 1 107 12 discriminator 6
 815 05c4 E38607FC 		beqz	a5,.L40
 109:test/Threads_C_API_test.cpp ****     }
 110:test/Threads_C_API_test.cpp **** 
 111:test/Threads_C_API_test.cpp **** }
 816              		.loc 1 111 1
 817 05c8 83308102 		ld	ra,40(sp)
 818              		.cfi_restore 1
 819 05cc 03340102 		ld	s0,32(sp)
 820              		.cfi_restore 8
 821              		.cfi_def_cfa 2, 48
 822 05d0 13010103 		addi	sp,sp,48
 823              		.cfi_def_cfa_offset 0
 824 05d4 67800000 		jr	ra
 825              		.cfi_endproc
 826              	.LFE38:
 828              		.bss
 829              		.set	.LANCHOR0,. + 0
 832              	_ZL9finishedD:
 833 0000 00       		.zero	1
 836              	_ZL9finishedC:
 837 0001 00       		.zero	1
 840              	_ZL9finishedB:
GAS LISTING /tmp/ccEDUVVt.s 			page 22


 841 0002 00       		.zero	1
 844              	_ZL9finishedA:
 845 0003 00       		.zero	1
 846              		.text
 847              	.Letext0:
 848              		.file 2 "test/../h/../lib/hw.h"
 849              		.file 3 "test/../h/../h/TCB.hpp"
 850              		.file 4 "test/../h/syscall_c.hpp"
 851              		.file 5 "test/printing.hpp"
GAS LISTING /tmp/ccEDUVVt.s 			page 23


DEFINED SYMBOLS
                            *ABS*:0000000000000000 Threads_C_API_test.cpp
     /tmp/ccEDUVVt.s:8      .text:0000000000000000 _ZL9fibonaccim
     /tmp/ccEDUVVt.s:12     .text:0000000000000000 .L0 
     /tmp/ccEDUVVt.s:14     .text:0000000000000000 .L0 
     /tmp/ccEDUVVt.s:15     .text:0000000000000004 .L0 
     /tmp/ccEDUVVt.s:20     .text:0000000000000014 .L0 
     /tmp/ccEDUVVt.s:21     .text:0000000000000014 .L0 
     /tmp/ccEDUVVt.s:22     .text:0000000000000014 .L0 
     /tmp/ccEDUVVt.s:23     .text:0000000000000014 .L0 
     /tmp/ccEDUVVt.s:25     .text:0000000000000018 .L0 
     /tmp/ccEDUVVt.s:28     .text:000000000000001c .L0 
     /tmp/ccEDUVVt.s:31     .text:0000000000000024 .L0 
     /tmp/ccEDUVVt.s:32     .text:0000000000000024 .L0 
     /tmp/ccEDUVVt.s:35     .text:000000000000002c .L0 
     /tmp/ccEDUVVt.s:39     .text:0000000000000030 .L0 
     /tmp/ccEDUVVt.s:40     .text:0000000000000030 .L0 
     /tmp/ccEDUVVt.s:45     .text:0000000000000040 .L0 
     /tmp/ccEDUVVt.s:49     .text:000000000000004c .L0 
     /tmp/ccEDUVVt.s:52     .text:0000000000000050 .L0 
     /tmp/ccEDUVVt.s:53     .text:0000000000000054 .L0 
     /tmp/ccEDUVVt.s:54     .text:0000000000000054 .L0 
     /tmp/ccEDUVVt.s:56     .text:0000000000000058 .L0 
     /tmp/ccEDUVVt.s:57     .text:0000000000000058 .L0 
     /tmp/ccEDUVVt.s:59     .text:000000000000005c .L0 
     /tmp/ccEDUVVt.s:62     .text:0000000000000060 .L0 
     /tmp/ccEDUVVt.s:64     .text:0000000000000064 .L0 
     /tmp/ccEDUVVt.s:68     .text:0000000000000068 .L0 
     /tmp/ccEDUVVt.s:70     .text:0000000000000068 .L0 
     /tmp/ccEDUVVt.s:71     .text:0000000000000068 .L0 
     /tmp/ccEDUVVt.s:74     .text:0000000000000074 .L0 
     /tmp/ccEDUVVt.s:96     .text:0000000000000074 _ZL11workerBodyDPv
     /tmp/ccEDUVVt.s:99     .text:0000000000000074 .L0 
     /tmp/ccEDUVVt.s:101    .text:0000000000000074 .L0 
     /tmp/ccEDUVVt.s:102    .text:0000000000000078 .L0 
     /tmp/ccEDUVVt.s:107    .text:0000000000000088 .L0 
     /tmp/ccEDUVVt.s:108    .text:0000000000000088 .L0 
     /tmp/ccEDUVVt.s:109    .text:0000000000000088 .L0 
     /tmp/ccEDUVVt.s:110    .text:0000000000000088 .L0 
     /tmp/ccEDUVVt.s:112    .text:000000000000008c .L0 
     /tmp/ccEDUVVt.s:115    .text:000000000000008c .L0 
     /tmp/ccEDUVVt.s:116    .text:000000000000008c .L0 
     /tmp/ccEDUVVt.s:121    .text:0000000000000094 .L0 
     /tmp/ccEDUVVt.s:122    .text:0000000000000094 .L0 
     /tmp/ccEDUVVt.s:126    .text:00000000000000a4 .L0 
     /tmp/ccEDUVVt.s:127    .text:00000000000000a4 .L0 
     /tmp/ccEDUVVt.s:133    .text:00000000000000b8 .L0 
     /tmp/ccEDUVVt.s:134    .text:00000000000000b8 .L0 
     /tmp/ccEDUVVt.s:138    .text:00000000000000c8 .L0 
     /tmp/ccEDUVVt.s:144    .text:00000000000000d0 .L0 
     /tmp/ccEDUVVt.s:145    .text:00000000000000d0 .L0 
     /tmp/ccEDUVVt.s:148    .text:00000000000000d8 .L0 
     /tmp/ccEDUVVt.s:149    .text:00000000000000d8 .L0 
     /tmp/ccEDUVVt.s:153    .text:00000000000000e8 .L0 
test/Threads_C_API_test.cpp:77     .text:00000000000000e8 .L0 
     /tmp/ccEDUVVt.s:159    .text:00000000000000ec .L0 
     /tmp/ccEDUVVt.s:161    .text:00000000000000ec .L0 
GAS LISTING /tmp/ccEDUVVt.s 			page 24


     /tmp/ccEDUVVt.s:164    .text:00000000000000f4 .L0 
     /tmp/ccEDUVVt.s:165    .text:00000000000000f4 .L0 
     /tmp/ccEDUVVt.s:171    .text:0000000000000104 .L0 
     /tmp/ccEDUVVt.s:172    .text:0000000000000104 .L0 
     /tmp/ccEDUVVt.s:177    .text:0000000000000114 .L0 
     /tmp/ccEDUVVt.s:178    .text:0000000000000114 .L0 
     /tmp/ccEDUVVt.s:184    .text:0000000000000128 .L0 
     /tmp/ccEDUVVt.s:185    .text:0000000000000128 .L0 
     /tmp/ccEDUVVt.s:191    .text:000000000000013c .L0 
     /tmp/ccEDUVVt.s:192    .text:000000000000013c .L0 
     /tmp/ccEDUVVt.s:196    .text:000000000000014c .L0 
     /tmp/ccEDUVVt.s:197    .text:000000000000014c .L0 
     /tmp/ccEDUVVt.s:203    .text:0000000000000160 .L0 
     /tmp/ccEDUVVt.s:204    .text:0000000000000160 .L0 
     /tmp/ccEDUVVt.s:208    .text:0000000000000170 .L0 
     /tmp/ccEDUVVt.s:214    .text:0000000000000178 .L0 
     /tmp/ccEDUVVt.s:215    .text:0000000000000178 .L0 
     /tmp/ccEDUVVt.s:218    .text:0000000000000180 .L0 
     /tmp/ccEDUVVt.s:219    .text:0000000000000180 .L0 
     /tmp/ccEDUVVt.s:223    .text:0000000000000190 .L0 
     /tmp/ccEDUVVt.s:224    .text:0000000000000190 .L0 
     /tmp/ccEDUVVt.s:227    .text:000000000000019c .L0 
     /tmp/ccEDUVVt.s:228    .text:000000000000019c .L0 
     /tmp/ccEDUVVt.s:231    .text:00000000000001a4 .L0 
     /tmp/ccEDUVVt.s:232    .text:00000000000001a8 .L0 
     /tmp/ccEDUVVt.s:234    .text:00000000000001ac .L0 
     /tmp/ccEDUVVt.s:235    .text:00000000000001ac .L0 
     /tmp/ccEDUVVt.s:237    .text:00000000000001b0 .L0 
     /tmp/ccEDUVVt.s:240    .text:00000000000001b4 .L0 
     /tmp/ccEDUVVt.s:243    .text:00000000000001b8 .L0 
     /tmp/ccEDUVVt.s:245    .text:00000000000001bc .L0 
     /tmp/ccEDUVVt.s:267    .text:00000000000001bc _ZL11workerBodyCPv
     /tmp/ccEDUVVt.s:270    .text:00000000000001bc .L0 
     /tmp/ccEDUVVt.s:272    .text:00000000000001bc .L0 
     /tmp/ccEDUVVt.s:273    .text:00000000000001c0 .L0 
     /tmp/ccEDUVVt.s:278    .text:00000000000001d0 .L0 
     /tmp/ccEDUVVt.s:279    .text:00000000000001d0 .L0 
     /tmp/ccEDUVVt.s:280    .text:00000000000001d0 .L0 
     /tmp/ccEDUVVt.s:281    .text:00000000000001d0 .L0 
     /tmp/ccEDUVVt.s:283    .text:00000000000001d4 .L0 
     /tmp/ccEDUVVt.s:286    .text:00000000000001d4 .L0 
     /tmp/ccEDUVVt.s:287    .text:00000000000001d4 .L0 
     /tmp/ccEDUVVt.s:292    .text:00000000000001dc .L0 
     /tmp/ccEDUVVt.s:293    .text:00000000000001dc .L0 
     /tmp/ccEDUVVt.s:297    .text:00000000000001ec .L0 
     /tmp/ccEDUVVt.s:298    .text:00000000000001ec .L0 
     /tmp/ccEDUVVt.s:304    .text:0000000000000200 .L0 
     /tmp/ccEDUVVt.s:305    .text:0000000000000200 .L0 
     /tmp/ccEDUVVt.s:309    .text:0000000000000210 .L0 
     /tmp/ccEDUVVt.s:315    .text:0000000000000218 .L0 
     /tmp/ccEDUVVt.s:316    .text:0000000000000218 .L0 
     /tmp/ccEDUVVt.s:319    .text:0000000000000220 .L0 
     /tmp/ccEDUVVt.s:320    .text:0000000000000220 .L0 
     /tmp/ccEDUVVt.s:324    .text:0000000000000230 .L0 
test/Threads_C_API_test.cpp:50     .text:0000000000000230 .L0 
     /tmp/ccEDUVVt.s:330    .text:0000000000000234 .L0 
     /tmp/ccEDUVVt.s:332    .text:0000000000000234 .L0 
GAS LISTING /tmp/ccEDUVVt.s 			page 25


     /tmp/ccEDUVVt.s:335    .text:000000000000023c .L0 
     /tmp/ccEDUVVt.s:336    .text:000000000000023c .L0 
test/Threads_C_API_test.cpp:54     .text:000000000000023c .L0 
     /tmp/ccEDUVVt.s:343    .text:0000000000000240 .L0 
     /tmp/ccEDUVVt.s:345    .text:0000000000000240 .L0 
     /tmp/ccEDUVVt.s:349    .text:0000000000000250 .L0 
     /tmp/ccEDUVVt.s:350    .text:0000000000000250 .L0 
     /tmp/ccEDUVVt.s:356    .text:0000000000000264 .L0 
     /tmp/ccEDUVVt.s:357    .text:0000000000000264 .L0 
     /tmp/ccEDUVVt.s:361    .text:0000000000000274 .L0 
     /tmp/ccEDUVVt.s:362    .text:0000000000000274 .L0 
     /tmp/ccEDUVVt.s:368    .text:0000000000000284 .L0 
     /tmp/ccEDUVVt.s:369    .text:0000000000000284 .L0 
     /tmp/ccEDUVVt.s:374    .text:0000000000000294 .L0 
     /tmp/ccEDUVVt.s:375    .text:0000000000000294 .L0 
     /tmp/ccEDUVVt.s:381    .text:00000000000002a8 .L0 
     /tmp/ccEDUVVt.s:382    .text:00000000000002a8 .L0 
     /tmp/ccEDUVVt.s:388    .text:00000000000002bc .L0 
     /tmp/ccEDUVVt.s:389    .text:00000000000002bc .L0 
     /tmp/ccEDUVVt.s:393    .text:00000000000002cc .L0 
     /tmp/ccEDUVVt.s:394    .text:00000000000002cc .L0 
     /tmp/ccEDUVVt.s:400    .text:00000000000002e0 .L0 
     /tmp/ccEDUVVt.s:401    .text:00000000000002e0 .L0 
     /tmp/ccEDUVVt.s:405    .text:00000000000002f0 .L0 
     /tmp/ccEDUVVt.s:411    .text:00000000000002f8 .L0 
     /tmp/ccEDUVVt.s:412    .text:00000000000002f8 .L0 
     /tmp/ccEDUVVt.s:415    .text:0000000000000300 .L0 
     /tmp/ccEDUVVt.s:416    .text:0000000000000300 .L0 
     /tmp/ccEDUVVt.s:420    .text:0000000000000310 .L0 
     /tmp/ccEDUVVt.s:421    .text:0000000000000310 .L0 
     /tmp/ccEDUVVt.s:424    .text:000000000000031c .L0 
     /tmp/ccEDUVVt.s:425    .text:000000000000031c .L0 
     /tmp/ccEDUVVt.s:428    .text:0000000000000324 .L0 
     /tmp/ccEDUVVt.s:429    .text:0000000000000328 .L0 
     /tmp/ccEDUVVt.s:431    .text:000000000000032c .L0 
     /tmp/ccEDUVVt.s:432    .text:000000000000032c .L0 
     /tmp/ccEDUVVt.s:434    .text:0000000000000330 .L0 
     /tmp/ccEDUVVt.s:437    .text:0000000000000334 .L0 
     /tmp/ccEDUVVt.s:440    .text:0000000000000338 .L0 
     /tmp/ccEDUVVt.s:442    .text:000000000000033c .L0 
     /tmp/ccEDUVVt.s:455    .text:000000000000033c _ZL11workerBodyBPv
     /tmp/ccEDUVVt.s:458    .text:000000000000033c .L0 
     /tmp/ccEDUVVt.s:460    .text:000000000000033c .L0 
     /tmp/ccEDUVVt.s:461    .text:0000000000000340 .L0 
     /tmp/ccEDUVVt.s:466    .text:0000000000000350 .L0 
     /tmp/ccEDUVVt.s:467    .text:0000000000000350 .L0 
     /tmp/ccEDUVVt.s:468    .text:0000000000000350 .L0 
     /tmp/ccEDUVVt.s:469    .text:0000000000000350 .L0 
     /tmp/ccEDUVVt.s:471    .text:0000000000000354 .L0 
     /tmp/ccEDUVVt.s:475    .text:0000000000000354 .L0 
     /tmp/ccEDUVVt.s:476    .text:0000000000000354 .L0 
     /tmp/ccEDUVVt.s:484    .text:000000000000035c .L0 
     /tmp/ccEDUVVt.s:485    .text:000000000000035c .L0 
     /tmp/ccEDUVVt.s:489    .text:0000000000000364 .L0 
     /tmp/ccEDUVVt.s:493    .text:0000000000000368 .L0 
     /tmp/ccEDUVVt.s:499    .text:0000000000000374 .L0 
     /tmp/ccEDUVVt.s:503    .text:0000000000000378 .L0 
GAS LISTING /tmp/ccEDUVVt.s 			page 26


     /tmp/ccEDUVVt.s:507    .text:0000000000000384 .L0 
     /tmp/ccEDUVVt.s:517    .text:000000000000038c .L0 
     /tmp/ccEDUVVt.s:521    .text:0000000000000390 .L0 
     /tmp/ccEDUVVt.s:525    .text:0000000000000398 .L0 
     /tmp/ccEDUVVt.s:526    .text:0000000000000398 .L0 
     /tmp/ccEDUVVt.s:530    .text:00000000000003a8 .L0 
     /tmp/ccEDUVVt.s:531    .text:00000000000003a8 .L0 
     /tmp/ccEDUVVt.s:537    .text:00000000000003bc .L0 
     /tmp/ccEDUVVt.s:538    .text:00000000000003bc .L0 
     /tmp/ccEDUVVt.s:543    .text:00000000000003cc .L0 
     /tmp/ccEDUVVt.s:544    .text:00000000000003cc .L0 
     /tmp/ccEDUVVt.s:552    .text:00000000000003d4 .L0 
     /tmp/ccEDUVVt.s:553    .text:00000000000003d4 .L0 
     /tmp/ccEDUVVt.s:557    .text:00000000000003e4 .L0 
     /tmp/ccEDUVVt.s:558    .text:00000000000003e4 .L0 
     /tmp/ccEDUVVt.s:561    .text:00000000000003f0 .L0 
     /tmp/ccEDUVVt.s:562    .text:00000000000003f0 .L0 
     /tmp/ccEDUVVt.s:565    .text:00000000000003f8 .L0 
     /tmp/ccEDUVVt.s:566    .text:00000000000003fc .L0 
     /tmp/ccEDUVVt.s:568    .text:0000000000000400 .L0 
     /tmp/ccEDUVVt.s:569    .text:0000000000000400 .L0 
     /tmp/ccEDUVVt.s:571    .text:0000000000000404 .L0 
     /tmp/ccEDUVVt.s:573    .text:0000000000000408 .L0 
     /tmp/ccEDUVVt.s:576    .text:000000000000040c .L0 
     /tmp/ccEDUVVt.s:578    .text:0000000000000410 .L0 
     /tmp/ccEDUVVt.s:591    .text:0000000000000410 _ZL11workerBodyAPv
     /tmp/ccEDUVVt.s:594    .text:0000000000000410 .L0 
     /tmp/ccEDUVVt.s:596    .text:0000000000000410 .L0 
     /tmp/ccEDUVVt.s:597    .text:0000000000000414 .L0 
     /tmp/ccEDUVVt.s:602    .text:0000000000000424 .L0 
     /tmp/ccEDUVVt.s:603    .text:0000000000000424 .L0 
     /tmp/ccEDUVVt.s:604    .text:0000000000000424 .L0 
     /tmp/ccEDUVVt.s:605    .text:0000000000000424 .L0 
     /tmp/ccEDUVVt.s:607    .text:0000000000000428 .L0 
     /tmp/ccEDUVVt.s:611    .text:0000000000000428 .L0 
     /tmp/ccEDUVVt.s:612    .text:0000000000000428 .L0 
     /tmp/ccEDUVVt.s:620    .text:0000000000000430 .L0 
     /tmp/ccEDUVVt.s:621    .text:0000000000000430 .L0 
     /tmp/ccEDUVVt.s:625    .text:0000000000000438 .L0 
     /tmp/ccEDUVVt.s:629    .text:000000000000043c .L0 
     /tmp/ccEDUVVt.s:635    .text:0000000000000448 .L0 
     /tmp/ccEDUVVt.s:639    .text:000000000000044c .L0 
     /tmp/ccEDUVVt.s:643    .text:0000000000000458 .L0 
     /tmp/ccEDUVVt.s:653    .text:0000000000000460 .L0 
     /tmp/ccEDUVVt.s:657    .text:0000000000000464 .L0 
     /tmp/ccEDUVVt.s:661    .text:000000000000046c .L0 
     /tmp/ccEDUVVt.s:662    .text:000000000000046c .L0 
     /tmp/ccEDUVVt.s:666    .text:000000000000047c .L0 
     /tmp/ccEDUVVt.s:667    .text:000000000000047c .L0 
     /tmp/ccEDUVVt.s:673    .text:0000000000000490 .L0 
     /tmp/ccEDUVVt.s:674    .text:0000000000000490 .L0 
     /tmp/ccEDUVVt.s:679    .text:00000000000004a0 .L0 
     /tmp/ccEDUVVt.s:680    .text:00000000000004a0 .L0 
     /tmp/ccEDUVVt.s:688    .text:00000000000004a8 .L0 
     /tmp/ccEDUVVt.s:689    .text:00000000000004a8 .L0 
     /tmp/ccEDUVVt.s:693    .text:00000000000004b8 .L0 
     /tmp/ccEDUVVt.s:694    .text:00000000000004b8 .L0 
GAS LISTING /tmp/ccEDUVVt.s 			page 27


     /tmp/ccEDUVVt.s:697    .text:00000000000004c4 .L0 
     /tmp/ccEDUVVt.s:698    .text:00000000000004c8 .L0 
     /tmp/ccEDUVVt.s:700    .text:00000000000004cc .L0 
     /tmp/ccEDUVVt.s:701    .text:00000000000004cc .L0 
     /tmp/ccEDUVVt.s:703    .text:00000000000004d0 .L0 
     /tmp/ccEDUVVt.s:705    .text:00000000000004d4 .L0 
     /tmp/ccEDUVVt.s:708    .text:00000000000004d8 .L0 
     /tmp/ccEDUVVt.s:710    .text:00000000000004dc .L0 
     /tmp/ccEDUVVt.s:730    .text:00000000000004dc _Z18Threads_C_API_testv
     /tmp/ccEDUVVt.s:733    .text:00000000000004dc .L0 
     /tmp/ccEDUVVt.s:734    .text:00000000000004dc .L0 
     /tmp/ccEDUVVt.s:735    .text:00000000000004e0 .L0 
     /tmp/ccEDUVVt.s:738    .text:00000000000004e8 .L0 
     /tmp/ccEDUVVt.s:739    .text:00000000000004e8 .L0 
     /tmp/ccEDUVVt.s:741    .text:00000000000004ec .L0 
     /tmp/ccEDUVVt.s:743    .text:00000000000004ec .L0 
     /tmp/ccEDUVVt.s:744    .text:00000000000004ec .L0 
     /tmp/ccEDUVVt.s:745    .text:00000000000004ec .L0 
     /tmp/ccEDUVVt.s:751    .text:0000000000000504 .L0 
     /tmp/ccEDUVVt.s:752    .text:0000000000000504 .L0 
     /tmp/ccEDUVVt.s:756    .text:0000000000000514 .L0 
     /tmp/ccEDUVVt.s:757    .text:0000000000000514 .L0 
     /tmp/ccEDUVVt.s:763    .text:000000000000052c .L0 
     /tmp/ccEDUVVt.s:764    .text:000000000000052c .L0 
     /tmp/ccEDUVVt.s:768    .text:000000000000053c .L0 
     /tmp/ccEDUVVt.s:769    .text:000000000000053c .L0 
     /tmp/ccEDUVVt.s:775    .text:0000000000000554 .L0 
     /tmp/ccEDUVVt.s:776    .text:0000000000000554 .L0 
     /tmp/ccEDUVVt.s:780    .text:0000000000000564 .L0 
     /tmp/ccEDUVVt.s:781    .text:0000000000000564 .L0 
     /tmp/ccEDUVVt.s:787    .text:000000000000057c .L0 
     /tmp/ccEDUVVt.s:788    .text:000000000000057c .L0 
     /tmp/ccEDUVVt.s:794    .text:0000000000000590 .L0 
     /tmp/ccEDUVVt.s:795    .text:0000000000000590 .L0 
     /tmp/ccEDUVVt.s:799    .text:0000000000000598 .L0 
     /tmp/ccEDUVVt.s:800    .text:0000000000000598 .L0 
     /tmp/ccEDUVVt.s:801    .text:0000000000000598 .L0 
     /tmp/ccEDUVVt.s:803    .text:00000000000005a0 .L0 
     /tmp/ccEDUVVt.s:805    .text:00000000000005a4 .L0 
     /tmp/ccEDUVVt.s:807    .text:00000000000005ac .L0 
     /tmp/ccEDUVVt.s:809    .text:00000000000005b0 .L0 
     /tmp/ccEDUVVt.s:811    .text:00000000000005b8 .L0 
     /tmp/ccEDUVVt.s:813    .text:00000000000005bc .L0 
     /tmp/ccEDUVVt.s:815    .text:00000000000005c4 .L0 
     /tmp/ccEDUVVt.s:817    .text:00000000000005c8 .L0 
     /tmp/ccEDUVVt.s:818    .text:00000000000005cc .L0 
     /tmp/ccEDUVVt.s:820    .text:00000000000005d0 .L0 
     /tmp/ccEDUVVt.s:821    .text:00000000000005d0 .L0 
     /tmp/ccEDUVVt.s:823    .text:00000000000005d4 .L0 
     /tmp/ccEDUVVt.s:825    .text:00000000000005d8 .L0 
     /tmp/ccEDUVVt.s:829    .bss:0000000000000000 .LANCHOR0
     /tmp/ccEDUVVt.s:832    .bss:0000000000000000 _ZL9finishedD
     /tmp/ccEDUVVt.s:836    .bss:0000000000000001 _ZL9finishedC
     /tmp/ccEDUVVt.s:840    .bss:0000000000000002 _ZL9finishedB
     /tmp/ccEDUVVt.s:844    .bss:0000000000000003 _ZL9finishedA
     /tmp/ccEDUVVt.s:852    .text:00000000000005d8 .L0 
     /tmp/ccEDUVVt.s:79     .rodata.str1.8:0000000000000000 .LC0
GAS LISTING /tmp/ccEDUVVt.s 			page 28


     /tmp/ccEDUVVt.s:122    .text:0000000000000094 .L0 
     /tmp/ccEDUVVt.s:82     .rodata.str1.8:0000000000000008 .LC1
     /tmp/ccEDUVVt.s:134    .text:00000000000000b8 .L0 
     /tmp/ccEDUVVt.s:85     .rodata.str1.8:0000000000000010 .LC2
     /tmp/ccEDUVVt.s:149    .text:00000000000000d8 .L0 
     /tmp/ccEDUVVt.s:88     .rodata.str1.8:0000000000000020 .LC3
     /tmp/ccEDUVVt.s:172    .text:0000000000000104 .L0 
     /tmp/ccEDUVVt.s:185    .text:0000000000000128 .L0 
     /tmp/ccEDUVVt.s:192    .text:000000000000013c .L0 
     /tmp/ccEDUVVt.s:204    .text:0000000000000160 .L0 
     /tmp/ccEDUVVt.s:91     .rodata.str1.8:0000000000000030 .LC4
     /tmp/ccEDUVVt.s:219    .text:0000000000000180 .L0 
     /tmp/ccEDUVVt.s:225    .text:0000000000000194 .L0 
     /tmp/ccEDUVVt.s:250    .rodata.str1.8:0000000000000040 .LC5
     /tmp/ccEDUVVt.s:293    .text:00000000000001dc .L0 
     /tmp/ccEDUVVt.s:305    .text:0000000000000200 .L0 
     /tmp/ccEDUVVt.s:253    .rodata.str1.8:0000000000000048 .LC6
     /tmp/ccEDUVVt.s:320    .text:0000000000000220 .L0 
     /tmp/ccEDUVVt.s:256    .rodata.str1.8:0000000000000058 .LC7
     /tmp/ccEDUVVt.s:345    .text:0000000000000240 .L0 
     /tmp/ccEDUVVt.s:357    .text:0000000000000264 .L0 
     /tmp/ccEDUVVt.s:259    .rodata.str1.8:0000000000000060 .LC8
     /tmp/ccEDUVVt.s:369    .text:0000000000000284 .L0 
     /tmp/ccEDUVVt.s:382    .text:00000000000002a8 .L0 
     /tmp/ccEDUVVt.s:389    .text:00000000000002bc .L0 
     /tmp/ccEDUVVt.s:401    .text:00000000000002e0 .L0 
     /tmp/ccEDUVVt.s:262    .rodata.str1.8:0000000000000070 .LC9
     /tmp/ccEDUVVt.s:416    .text:0000000000000300 .L0 
     /tmp/ccEDUVVt.s:422    .text:0000000000000314 .L0 
     /tmp/ccEDUVVt.s:447    .rodata.str1.8:0000000000000080 .LC10
     /tmp/ccEDUVVt.s:526    .text:0000000000000398 .L0 
     /tmp/ccEDUVVt.s:538    .text:00000000000003bc .L0 
     /tmp/ccEDUVVt.s:450    .rodata.str1.8:0000000000000088 .LC11
     /tmp/ccEDUVVt.s:553    .text:00000000000003d4 .L0 
     /tmp/ccEDUVVt.s:559    .text:00000000000003e8 .L0 
     /tmp/ccEDUVVt.s:583    .rodata.str1.8:0000000000000098 .LC12
     /tmp/ccEDUVVt.s:662    .text:000000000000046c .L0 
     /tmp/ccEDUVVt.s:674    .text:0000000000000490 .L0 
     /tmp/ccEDUVVt.s:586    .rodata.str1.8:00000000000000a0 .LC13
     /tmp/ccEDUVVt.s:689    .text:00000000000004a8 .L0 
     /tmp/ccEDUVVt.s:695    .text:00000000000004bc .L0 
     /tmp/ccEDUVVt.s:746    .text:00000000000004f0 .L0 
     /tmp/ccEDUVVt.s:715    .rodata.str1.8:00000000000000b0 .LC14
     /tmp/ccEDUVVt.s:752    .text:0000000000000504 .L0 
     /tmp/ccEDUVVt.s:758    .text:0000000000000518 .L0 
     /tmp/ccEDUVVt.s:718    .rodata.str1.8:00000000000000c8 .LC15
     /tmp/ccEDUVVt.s:764    .text:000000000000052c .L0 
     /tmp/ccEDUVVt.s:770    .text:0000000000000540 .L0 
     /tmp/ccEDUVVt.s:721    .rodata.str1.8:00000000000000e0 .LC16
     /tmp/ccEDUVVt.s:776    .text:0000000000000554 .L0 
     /tmp/ccEDUVVt.s:782    .text:0000000000000568 .L0 
     /tmp/ccEDUVVt.s:724    .rodata.str1.8:00000000000000f8 .LC17
     /tmp/ccEDUVVt.s:788    .text:000000000000057c .L0 
     /tmp/ccEDUVVt.s:801    .text:0000000000000598 .L0 
     /tmp/ccEDUVVt.s:805    .text:00000000000005a4 .L0 
     /tmp/ccEDUVVt.s:809    .text:00000000000005b0 .L0 
     /tmp/ccEDUVVt.s:813    .text:00000000000005bc .L0 
GAS LISTING /tmp/ccEDUVVt.s 			page 29


     /tmp/ccEDUVVt.s:50     .text:0000000000000050 .L1
     /tmp/ccEDUVVt.s:67     .text:0000000000000068 .L6
     /tmp/ccEDUVVt.s:37     .text:0000000000000030 .L3
     /tmp/ccEDUVVt.s:142    .text:00000000000000d0 .L9
     /tmp/ccEDUVVt.s:119    .text:0000000000000094 .L13
     /tmp/ccEDUVVt.s:212    .text:0000000000000178 .L11
     /tmp/ccEDUVVt.s:189    .text:000000000000013c .L14
     /tmp/ccEDUVVt.s:313    .text:0000000000000218 .L17
     /tmp/ccEDUVVt.s:290    .text:00000000000001dc .L21
     /tmp/ccEDUVVt.s:409    .text:00000000000002f8 .L19
     /tmp/ccEDUVVt.s:386    .text:00000000000002bc .L22
     /tmp/ccEDUVVt.s:519    .text:0000000000000390 .L29
     /tmp/ccEDUVVt.s:511    .text:000000000000038c .L25
     /tmp/ccEDUVVt.s:479    .text:000000000000035c .L26
     /tmp/ccEDUVVt.s:500    .text:0000000000000378 .L27
     /tmp/ccEDUVVt.s:547    .text:00000000000003d4 .L24
     /tmp/ccEDUVVt.s:491    .text:0000000000000368 .L28
     /tmp/ccEDUVVt.s:655    .text:0000000000000464 .L37
     /tmp/ccEDUVVt.s:647    .text:0000000000000460 .L33
     /tmp/ccEDUVVt.s:615    .text:0000000000000430 .L34
     /tmp/ccEDUVVt.s:636    .text:000000000000044c .L35
     /tmp/ccEDUVVt.s:683    .text:00000000000004a8 .L32
     /tmp/ccEDUVVt.s:627    .text:000000000000043c .L36
     /tmp/ccEDUVVt.s:797    .text:0000000000000598 .L41
     /tmp/ccEDUVVt.s:792    .text:0000000000000590 .L40
     /tmp/ccEDUVVt.s:2382   .debug_abbrev:0000000000000000 .Ldebug_abbrev0
     /tmp/ccEDUVVt.s:3538   .debug_str:00000000000004cf .LASF92
     /tmp/ccEDUVVt.s:3384   .debug_str:000000000000007a .LASF93
     /tmp/ccEDUVVt.s:3422   .debug_str:00000000000001af .LASF94
     /tmp/ccEDUVVt.s:5      .text:0000000000000000 .Ltext0
     /tmp/ccEDUVVt.s:847    .text:00000000000005d8 .Letext0
     /tmp/ccEDUVVt.s:3362   .debug_line:0000000000000000 .Ldebug_line0
     /tmp/ccEDUVVt.s:3434   .debug_str:0000000000000211 .LASF0
     /tmp/ccEDUVVt.s:3442   .debug_str:000000000000024c .LASF1
     /tmp/ccEDUVVt.s:3494   .debug_str:00000000000003e1 .LASF2
     /tmp/ccEDUVVt.s:3406   .debug_str:0000000000000137 .LASF3
     /tmp/ccEDUVVt.s:3502   .debug_str:0000000000000413 .LASF4
     /tmp/ccEDUVVt.s:3436   .debug_str:000000000000021e .LASF5
     /tmp/ccEDUVVt.s:3368   .debug_str:0000000000000011 .LASF6
     /tmp/ccEDUVVt.s:3484   .debug_str:000000000000039c .LASF7
     /tmp/ccEDUVVt.s:3472   .debug_str:0000000000000350 .LASF8
     /tmp/ccEDUVVt.s:3440   .debug_str:0000000000000239 .LASF9
     /tmp/ccEDUVVt.s:3418   .debug_str:0000000000000195 .LASF10
     /tmp/ccEDUVVt.s:3424   .debug_str:00000000000001cd .LASF11
     /tmp/ccEDUVVt.s:3390   .debug_str:00000000000000bb .LASF12
     /tmp/ccEDUVVt.s:3412   .debug_str:0000000000000162 .LASF13
     /tmp/ccEDUVVt.s:3398   .debug_str:00000000000000f1 .LASF14
     /tmp/ccEDUVVt.s:3388   .debug_str:00000000000000ab .LASF15
     /tmp/ccEDUVVt.s:3520   .debug_str:0000000000000481 .LASF16
     /tmp/ccEDUVVt.s:3404   .debug_str:0000000000000121 .LASF17
     /tmp/ccEDUVVt.s:3514   .debug_str:000000000000044b .LASF18
     /tmp/ccEDUVVt.s:3452   .debug_str:000000000000029f .LASF19
     /tmp/ccEDUVVt.s:3526   .debug_str:000000000000049f .LASF95
     /tmp/ccEDUVVt.s:3552   .debug_str:00000000000005e6 .LASF96
     /tmp/ccEDUVVt.s:3490   .debug_str:00000000000003ca .LASF20
     /tmp/ccEDUVVt.s:3392   .debug_str:00000000000000ca .LASF21
     /tmp/ccEDUVVt.s:3540   .debug_str:0000000000000593 .LASF97
GAS LISTING /tmp/ccEDUVVt.s 			page 30


     /tmp/ccEDUVVt.s:3518   .debug_str:0000000000000474 .LASF22
     /tmp/ccEDUVVt.s:3454   .debug_str:00000000000002a4 .LASF24
     /tmp/ccEDUVVt.s:3468   .debug_str:0000000000000337 .LASF98
     /tmp/ccEDUVVt.s:3504   .debug_str:000000000000041a .LASF23
     /tmp/ccEDUVVt.s:3366   .debug_str:0000000000000005 .LASF25
     /tmp/ccEDUVVt.s:3444   .debug_str:000000000000025f .LASF26
     /tmp/ccEDUVVt.s:3492   .debug_str:00000000000003d1 .LASF28
     /tmp/ccEDUVVt.s:3402   .debug_str:0000000000000118 .LASF27
     /tmp/ccEDUVVt.s:3394   .debug_str:00000000000000cf .LASF29
     /tmp/ccEDUVVt.s:3534   .debug_str:00000000000004c2 .LASF65
     /tmp/ccEDUVVt.s:3416   .debug_str:0000000000000184 .LASF99
     /tmp/ccEDUVVt.s:3522   .debug_str:000000000000048d .LASF30
     /tmp/ccEDUVVt.s:3564   .debug_str:000000000000062d .LASF31
     /tmp/ccEDUVVt.s:3376   .debug_str:0000000000000044 .LASF32
     /tmp/ccEDUVVt.s:3498   .debug_str:00000000000003f9 .LASF33
     /tmp/ccEDUVVt.s:3536   .debug_str:00000000000004c7 .LASF52
     /tmp/ccEDUVVt.s:3528   .debug_str:00000000000004a7 .LASF36
     /tmp/ccEDUVVt.s:3458   .debug_str:00000000000002d6 .LASF38
     /tmp/ccEDUVVt.s:3380   .debug_str:0000000000000060 .LASF34
     /tmp/ccEDUVVt.s:3550   .debug_str:00000000000005cf .LASF35
     /tmp/ccEDUVVt.s:3426   .debug_str:00000000000001db .LASF37
     /tmp/ccEDUVVt.s:3470   .debug_str:000000000000033c .LASF39
     /tmp/ccEDUVVt.s:3372   .debug_str:000000000000002d .LASF40
     /tmp/ccEDUVVt.s:3450   .debug_str:000000000000028b .LASF41
     /tmp/ccEDUVVt.s:3496   .debug_str:00000000000003ef .LASF42
     /tmp/ccEDUVVt.s:3386   .debug_str:0000000000000096 .LASF43
     /tmp/ccEDUVVt.s:3530   .debug_str:00000000000004b2 .LASF44
     /tmp/ccEDUVVt.s:3410   .debug_str:000000000000014c .LASF45
     /tmp/ccEDUVVt.s:3456   .debug_str:00000000000002cb .LASF46
     /tmp/ccEDUVVt.s:3400   .debug_str:0000000000000101 .LASF47
     /tmp/ccEDUVVt.s:3546   .debug_str:00000000000005bb .LASF48
     /tmp/ccEDUVVt.s:3462   .debug_str:00000000000002f7 .LASF49
     /tmp/ccEDUVVt.s:3446   .debug_str:0000000000000265 .LASF50
     /tmp/ccEDUVVt.s:3556   .debug_str:00000000000005f9 .LASF51
     /tmp/ccEDUVVt.s:3510   .debug_str:0000000000000431 .LASF53
     /tmp/ccEDUVVt.s:3438   .debug_str:0000000000000230 .LASF54
     /tmp/ccEDUVVt.s:3364   .debug_str:0000000000000000 .LASF55
     /tmp/ccEDUVVt.s:3562   .debug_str:0000000000000627 .LASF56
     /tmp/ccEDUVVt.s:3548   .debug_str:00000000000005c7 .LASF57
     /tmp/ccEDUVVt.s:3512   .debug_str:0000000000000442 .LASF58
     /tmp/ccEDUVVt.s:3542   .debug_str:00000000000005aa .LASF59
     /tmp/ccEDUVVt.s:3464   .debug_str:000000000000030e .LASF60
     /tmp/ccEDUVVt.s:3524   .debug_str:0000000000000496 .LASF61
     /tmp/ccEDUVVt.s:3544   .debug_str:00000000000005b1 .LASF62
     /tmp/ccEDUVVt.s:3408   .debug_str:000000000000013d .LASF63
     /tmp/ccEDUVVt.s:3374   .debug_str:0000000000000037 .LASF64
     /tmp/ccEDUVVt.s:3486   .debug_str:00000000000003a3 .LASF100
     /tmp/ccEDUVVt.s:3382   .debug_str:000000000000006c .LASF66
     /tmp/ccEDUVVt.s:3448   .debug_str:0000000000000272 .LASF68
     /tmp/ccEDUVVt.s:3430   .debug_str:00000000000001fc .LASF67
     /tmp/ccEDUVVt.s:3378   .debug_str:000000000000004a .LASF69
     /tmp/ccEDUVVt.s:3532   .debug_str:00000000000004bd .LASF70
     /tmp/ccEDUVVt.s:3558   .debug_str:0000000000000612 .LASF71
     /tmp/ccEDUVVt.s:3500   .debug_str:0000000000000409 .LASF72
     /tmp/ccEDUVVt.s:3432   .debug_str:0000000000000207 .LASF73
     /tmp/ccEDUVVt.s:3460   .debug_str:00000000000002ed .LASF74
     /tmp/ccEDUVVt.s:3506   .debug_str:000000000000041f .LASF75
GAS LISTING /tmp/ccEDUVVt.s 			page 31


     /tmp/ccEDUVVt.s:3414   .debug_str:0000000000000171 .LASF76
     /tmp/ccEDUVVt.s:3428   .debug_str:00000000000001e4 .LASF77
     /tmp/ccEDUVVt.s:731    .text:00000000000004dc .LFB38
     /tmp/ccEDUVVt.s:826    .text:00000000000005d8 .LFE38
     /tmp/ccEDUVVt.s:3508   .debug_str:0000000000000429 .LASF78
     /tmp/ccEDUVVt.s:749    .text:0000000000000504 .LVL92
     /tmp/ccEDUVVt.s:754    .text:0000000000000514 .LVL93
     /tmp/ccEDUVVt.s:761    .text:000000000000052c .LVL94
     /tmp/ccEDUVVt.s:766    .text:000000000000053c .LVL95
     /tmp/ccEDUVVt.s:773    .text:0000000000000554 .LVL96
     /tmp/ccEDUVVt.s:778    .text:0000000000000564 .LVL97
     /tmp/ccEDUVVt.s:785    .text:000000000000057c .LVL98
     /tmp/ccEDUVVt.s:790    .text:000000000000058c .LVL99
     /tmp/ccEDUVVt.s:796    .text:0000000000000598 .LVL100
     /tmp/ccEDUVVt.s:3482   .debug_str:0000000000000390 .LASF80
     /tmp/ccEDUVVt.s:97     .text:0000000000000074 .LFB37
     /tmp/ccEDUVVt.s:246    .text:00000000000001bc .LFE37
     /tmp/ccEDUVVt.s:3117   .debug_loc:0000000000000000 .LLST1
     /tmp/ccEDUVVt.s:3131   .debug_loc:0000000000000039 .LLST2
     /tmp/ccEDUVVt.s:3566   .debug_str:0000000000000640 .LASF79
     /tmp/ccEDUVVt.s:3151   .debug_loc:0000000000000096 .LLST3
     /tmp/ccEDUVVt.s:124    .text:00000000000000a4 .LVL10
     /tmp/ccEDUVVt.s:131    .text:00000000000000b8 .LVL11
     /tmp/ccEDUVVt.s:136    .text:00000000000000c8 .LVL12
     /tmp/ccEDUVVt.s:151    .text:00000000000000e8 .LVL15
     /tmp/ccEDUVVt.s:162    .text:00000000000000f4 .LVL16
     /tmp/ccEDUVVt.s:167    .text:0000000000000100 .LVL17
     /tmp/ccEDUVVt.s:175    .text:0000000000000114 .LVL20
     /tmp/ccEDUVVt.s:182    .text:0000000000000128 .LVL21
     /tmp/ccEDUVVt.s:187    .text:0000000000000138 .LVL22
     /tmp/ccEDUVVt.s:194    .text:000000000000014c .LVL23
     /tmp/ccEDUVVt.s:201    .text:0000000000000160 .LVL24
     /tmp/ccEDUVVt.s:206    .text:0000000000000170 .LVL25
     /tmp/ccEDUVVt.s:221    .text:0000000000000190 .LVL28
     /tmp/ccEDUVVt.s:229    .text:00000000000001a4 .LVL29
     /tmp/ccEDUVVt.s:3480   .debug_str:0000000000000384 .LASF81
     /tmp/ccEDUVVt.s:268    .text:00000000000001bc .LFB36
     /tmp/ccEDUVVt.s:443    .text:000000000000033c .LFE36
     /tmp/ccEDUVVt.s:3162   .debug_loc:00000000000000cc .LLST4
     /tmp/ccEDUVVt.s:3176   .debug_loc:0000000000000105 .LLST5
     /tmp/ccEDUVVt.s:3196   .debug_loc:0000000000000162 .LLST6
     /tmp/ccEDUVVt.s:3204   .debug_loc:0000000000000186 .LLST7
     /tmp/ccEDUVVt.s:295    .text:00000000000001ec .LVL35
     /tmp/ccEDUVVt.s:302    .text:0000000000000200 .LVL36
     /tmp/ccEDUVVt.s:307    .text:0000000000000210 .LVL37
     /tmp/ccEDUVVt.s:322    .text:0000000000000230 .LVL40
     /tmp/ccEDUVVt.s:333    .text:000000000000023c .LVL41
     /tmp/ccEDUVVt.s:347    .text:0000000000000250 .LVL43
     /tmp/ccEDUVVt.s:354    .text:0000000000000264 .LVL44
     /tmp/ccEDUVVt.s:359    .text:0000000000000274 .LVL45
     /tmp/ccEDUVVt.s:364    .text:0000000000000280 .LVL46
     /tmp/ccEDUVVt.s:372    .text:0000000000000294 .LVL49
     /tmp/ccEDUVVt.s:379    .text:00000000000002a8 .LVL50
     /tmp/ccEDUVVt.s:384    .text:00000000000002b8 .LVL51
     /tmp/ccEDUVVt.s:391    .text:00000000000002cc .LVL52
     /tmp/ccEDUVVt.s:398    .text:00000000000002e0 .LVL53
     /tmp/ccEDUVVt.s:403    .text:00000000000002f0 .LVL54
GAS LISTING /tmp/ccEDUVVt.s 			page 32


     /tmp/ccEDUVVt.s:418    .text:0000000000000310 .LVL57
     /tmp/ccEDUVVt.s:426    .text:0000000000000324 .LVL58
     /tmp/ccEDUVVt.s:3478   .debug_str:0000000000000378 .LASF82
     /tmp/ccEDUVVt.s:456    .text:000000000000033c .LFB35
     /tmp/ccEDUVVt.s:579    .text:0000000000000410 .LFE35
     /tmp/ccEDUVVt.s:3215   .debug_loc:00000000000001bc .LLST8
     /tmp/ccEDUVVt.s:474    .text:0000000000000354 .LBB2
     /tmp/ccEDUVVt.s:550    .text:00000000000003d4 .LBE2
     /tmp/ccEDUVVt.s:3229   .debug_loc:00000000000001f5 .LLST9
     /tmp/ccEDUVVt.s:3348   .debug_ranges:0000000000000000 .Ldebug_ranges0
     /tmp/ccEDUVVt.s:3241   .debug_loc:000000000000022c .LLST10
     /tmp/ccEDUVVt.s:497    .text:0000000000000374 .LBB6
     /tmp/ccEDUVVt.s:512    .text:000000000000038c .LBE6
     /tmp/ccEDUVVt.s:3253   .debug_loc:0000000000000263 .LLST11
     /tmp/ccEDUVVt.s:486    .text:0000000000000364 .LVL64
     /tmp/ccEDUVVt.s:528    .text:00000000000003a8 .LVL70
     /tmp/ccEDUVVt.s:535    .text:00000000000003bc .LVL71
     /tmp/ccEDUVVt.s:540    .text:00000000000003cc .LVL72
     /tmp/ccEDUVVt.s:555    .text:00000000000003e4 .LVL74
     /tmp/ccEDUVVt.s:563    .text:00000000000003f8 .LVL75
     /tmp/ccEDUVVt.s:3476   .debug_str:000000000000036c .LASF83
     /tmp/ccEDUVVt.s:592    .text:0000000000000410 .LFB34
     /tmp/ccEDUVVt.s:711    .text:00000000000004dc .LFE34
     /tmp/ccEDUVVt.s:3264   .debug_loc:0000000000000299 .LLST12
     /tmp/ccEDUVVt.s:610    .text:0000000000000428 .LBB10
     /tmp/ccEDUVVt.s:686    .text:00000000000004a8 .LBE10
     /tmp/ccEDUVVt.s:3278   .debug_loc:00000000000002d2 .LLST13
     /tmp/ccEDUVVt.s:3290   .debug_loc:0000000000000309 .LLST14
     /tmp/ccEDUVVt.s:633    .text:0000000000000448 .LBB14
     /tmp/ccEDUVVt.s:648    .text:0000000000000460 .LBE14
     /tmp/ccEDUVVt.s:3302   .debug_loc:0000000000000340 .LLST15
     /tmp/ccEDUVVt.s:622    .text:0000000000000438 .LVL80
     /tmp/ccEDUVVt.s:664    .text:000000000000047c .LVL86
     /tmp/ccEDUVVt.s:671    .text:0000000000000490 .LVL87
     /tmp/ccEDUVVt.s:676    .text:00000000000004a0 .LVL88
     /tmp/ccEDUVVt.s:691    .text:00000000000004b8 .LVL90
     /tmp/ccEDUVVt.s:3420   .debug_str:00000000000001a5 .LASF101
     /tmp/ccEDUVVt.s:9      .text:0000000000000000 .LFB33
     /tmp/ccEDUVVt.s:75     .text:0000000000000074 .LFE33
     /tmp/ccEDUVVt.s:3313   .debug_loc:0000000000000376 .LLST0
     /tmp/ccEDUVVt.s:42     .text:000000000000003c .LVL2
     /tmp/ccEDUVVt.s:47     .text:000000000000004c .LVL3
     /tmp/ccEDUVVt.s:72     .text:0000000000000070 .LVL6
     /tmp/ccEDUVVt.s:3466   .debug_str:0000000000000316 .LASF84
     /tmp/ccEDUVVt.s:3554   .debug_str:00000000000005eb .LASF86
     /tmp/ccEDUVVt.s:3516   .debug_str:0000000000000461 .LASF85
     /tmp/ccEDUVVt.s:3560   .debug_str:000000000000061b .LASF87
     /tmp/ccEDUVVt.s:3370   .debug_str:0000000000000018 .LASF88
     /tmp/ccEDUVVt.s:3488   .debug_str:00000000000003ba .LASF89
     /tmp/ccEDUVVt.s:3396   .debug_str:00000000000000e2 .LASF90
     /tmp/ccEDUVVt.s:3474   .debug_str:0000000000000363 .LASF91
     /tmp/ccEDUVVt.s:100    .text:0000000000000074 .LVL7
     /tmp/ccEDUVVt.s:118    .text:0000000000000094 .LVL9
     /tmp/ccEDUVVt.s:114    .text:000000000000008c .LVL8
     /tmp/ccEDUVVt.s:139    .text:00000000000000cc .LVL13
     /tmp/ccEDUVVt.s:141    .text:00000000000000d0 .LVL14
     /tmp/ccEDUVVt.s:209    .text:0000000000000174 .LVL26
GAS LISTING /tmp/ccEDUVVt.s 			page 33


     /tmp/ccEDUVVt.s:211    .text:0000000000000178 .LVL27
     /tmp/ccEDUVVt.s:238    .text:00000000000001b0 .LVL30
     /tmp/ccEDUVVt.s:169    .text:0000000000000104 .LVL18
     /tmp/ccEDUVVt.s:173    .text:000000000000010c .LVL19
     /tmp/ccEDUVVt.s:241    .text:00000000000001b4 .LVL31
     /tmp/ccEDUVVt.s:271    .text:00000000000001bc .LVL32
     /tmp/ccEDUVVt.s:289    .text:00000000000001dc .LVL34
     /tmp/ccEDUVVt.s:285    .text:00000000000001d4 .LVL33
     /tmp/ccEDUVVt.s:310    .text:0000000000000214 .LVL38
     /tmp/ccEDUVVt.s:312    .text:0000000000000218 .LVL39
     /tmp/ccEDUVVt.s:406    .text:00000000000002f4 .LVL55
     /tmp/ccEDUVVt.s:408    .text:00000000000002f8 .LVL56
     /tmp/ccEDUVVt.s:435    .text:0000000000000330 .LVL59
     /tmp/ccEDUVVt.s:341    .text:0000000000000240 .LVL42
     /tmp/ccEDUVVt.s:366    .text:0000000000000284 .LVL47
     /tmp/ccEDUVVt.s:370    .text:000000000000028c .LVL48
     /tmp/ccEDUVVt.s:438    .text:0000000000000334 .LVL60
     /tmp/ccEDUVVt.s:459    .text:000000000000033c .LVL61
     /tmp/ccEDUVVt.s:478    .text:000000000000035c .LVL63
     /tmp/ccEDUVVt.s:473    .text:0000000000000354 .LVL62
     /tmp/ccEDUVVt.s:574    .text:0000000000000408 .LVL76
     /tmp/ccEDUVVt.s:518    .text:0000000000000390 .LVL69
     /tmp/ccEDUVVt.s:546    .text:00000000000003d4 .LVL73
     /tmp/ccEDUVVt.s:501    .text:0000000000000378 .LVL66
     /tmp/ccEDUVVt.s:510    .text:000000000000038c .LVL68
     /tmp/ccEDUVVt.s:595    .text:0000000000000410 .LVL77
     /tmp/ccEDUVVt.s:614    .text:0000000000000430 .LVL79
     /tmp/ccEDUVVt.s:609    .text:0000000000000428 .LVL78
     /tmp/ccEDUVVt.s:706    .text:00000000000004d4 .LVL91
     /tmp/ccEDUVVt.s:654    .text:0000000000000464 .LVL85
     /tmp/ccEDUVVt.s:682    .text:00000000000004a8 .LVL89
     /tmp/ccEDUVVt.s:637    .text:000000000000044c .LVL82
     /tmp/ccEDUVVt.s:646    .text:0000000000000460 .LVL84
     /tmp/ccEDUVVt.s:13     .text:0000000000000000 .LVL0
     /tmp/ccEDUVVt.s:36     .text:0000000000000030 .LVL1
     /tmp/ccEDUVVt.s:60     .text:000000000000005c .LVL4
     /tmp/ccEDUVVt.s:66     .text:0000000000000068 .LVL5
     /tmp/ccEDUVVt.s:853    .debug_info:0000000000000000 .Ldebug_info0
     /tmp/ccEDUVVt.s:481    .text:000000000000035c .LBB4
     /tmp/ccEDUVVt.s:514    .text:000000000000038c .LBE4
     /tmp/ccEDUVVt.s:542    .text:00000000000003cc .LBB8
     /tmp/ccEDUVVt.s:548    .text:00000000000003d4 .LBE8
     /tmp/ccEDUVVt.s:617    .text:0000000000000430 .LBB12
     /tmp/ccEDUVVt.s:650    .text:0000000000000460 .LBE12
     /tmp/ccEDUVVt.s:678    .text:00000000000004a0 .LBB16
     /tmp/ccEDUVVt.s:684    .text:00000000000004a8 .LBE16

UNDEFINED SYMBOLS
_Z15thread_dispatchv
_Z11printStringPKc
_Z8printIntiii
_Z13thread_createPP3TCBPFvPvES2_
