GAS LISTING /tmp/ccEDUVVt.s 			page 1


   1              		.file	"Threads_C_API_test.cpp"
   2              		.option pic
   3              		.option norelax
   4              		.text
   5              	.Ltext0:
   6              		.align	2
   8              	_ZL9fibonaccim:
   9              	.LFB33:
  10              		.file 1 "test/Threads_C_API_test.cpp"
   1:test/Threads_C_API_test.cpp **** 
   2:test/Threads_C_API_test.cpp **** #include "../h/syscall_c.hpp"
   3:test/Threads_C_API_test.cpp **** #include "Threads_C_API_test.hpp"
   4:test/Threads_C_API_test.cpp **** 
   5:test/Threads_C_API_test.cpp **** #include "printing.hpp"
   6:test/Threads_C_API_test.cpp **** 
   7:test/Threads_C_API_test.cpp **** static volatile bool finishedA = false;
   8:test/Threads_C_API_test.cpp **** static volatile bool finishedB = false;
   9:test/Threads_C_API_test.cpp **** static volatile bool finishedC = false;
  10:test/Threads_C_API_test.cpp **** static volatile bool finishedD = false;
  11:test/Threads_C_API_test.cpp **** 
  12:test/Threads_C_API_test.cpp **** static uint64 fibonacci(uint64 n) {
  11              		.loc 1 12 35
  12              		.cfi_startproc
  13              	.LVL0:
  14 0000 130101FE 		addi	sp,sp,-32
  15              		.cfi_def_cfa_offset 32
  16 0004 233C1100 		sd	ra,24(sp)
  17 0008 23388100 		sd	s0,16(sp)
  18 000c 23349100 		sd	s1,8(sp)
  19 0010 23302101 		sd	s2,0(sp)
  20              		.cfi_offset 1, -8
  21              		.cfi_offset 8, -16
  22              		.cfi_offset 9, -24
  23              		.cfi_offset 18, -32
  24 0014 13040102 		addi	s0,sp,32
  25              		.cfi_def_cfa 8, 0
  26 0018 93040500 		mv	s1,a0
  13:test/Threads_C_API_test.cpp ****     if (n == 0 || n == 1) { return n; }
  27              		.loc 1 13 5
  28 001c 93071000 		li	a5,1
  29 0020 63F8A702 		bleu	a0,a5,.L1
  14:test/Threads_C_API_test.cpp ****     if (n % 10 == 0) { thread_dispatch(); }
  30              		.loc 1 14 5
  31              		.loc 1 14 11 is_stmt 0
  32 0024 9307A000 		li	a5,10
  33 0028 B377F502 		remu	a5,a0,a5
  34              		.loc 1 14 5
  35 002c 638E0702 		beqz	a5,.L6
  36              	.LVL1:
  37              	.L3:
  15:test/Threads_C_API_test.cpp ****     return fibonacci(n - 1) + fibonacci(n - 2);
  38              		.loc 1 15 5 is_stmt 1
  39              		.loc 1 15 21 is_stmt 0
  40 0030 1385F4FF 		addi	a0,s1,-1
  41 0034 97000000 		call	_ZL9fibonaccim
  41      E7800000 
  42              	.LVL2:
GAS LISTING /tmp/ccEDUVVt.s 			page 2


  43 003c 13090500 		mv	s2,a0
  44              		.loc 1 15 40
  45 0040 1385E4FF 		addi	a0,s1,-2
  46 0044 97000000 		call	_ZL9fibonaccim
  46      E7800000 
  47              	.LVL3:
  48              		.loc 1 15 46
  49 004c 3305A900 		add	a0,s2,a0
  50              	.L1:
  16:test/Threads_C_API_test.cpp **** }
  51              		.loc 1 16 1
  52 0050 83308101 		ld	ra,24(sp)
  53              		.cfi_remember_state
  54              		.cfi_restore 1
  55 0054 03340101 		ld	s0,16(sp)
  56              		.cfi_restore 8
  57              		.cfi_def_cfa 2, 32
  58 0058 83348100 		ld	s1,8(sp)
  59              		.cfi_restore 9
  60              	.LVL4:
  61 005c 03390100 		ld	s2,0(sp)
  62              		.cfi_restore 18
  63 0060 13010102 		addi	sp,sp,32
  64              		.cfi_def_cfa_offset 0
  65 0064 67800000 		jr	ra
  66              	.LVL5:
  67              	.L6:
  68              		.cfi_restore_state
  14:test/Threads_C_API_test.cpp ****     if (n % 10 == 0) { thread_dispatch(); }
  69              		.loc 1 14 24 is_stmt 1 discriminator 1
  14:test/Threads_C_API_test.cpp ****     if (n % 10 == 0) { thread_dispatch(); }
  70              		.loc 1 14 39 is_stmt 0 discriminator 1
  71 0068 97000000 		call	_Z15thread_dispatchv@plt
  71      E7800000 
  72              	.LVL6:
  73 0070 6FF01FFC 		j	.L3
  74              		.cfi_endproc
  75              	.LFE33:
  77              		.section	.rodata.str1.8,"aMS",@progbits,1
  78              		.align	3
  79              	.LC0:
  80 0000 443A2069 		.string	"D: i="
  80      3D00
  81 0006 0000     		.align	3
  82              	.LC1:
  83 0008 0A00     		.string	"\n"
  84 000a 00000000 		.align	3
  84      0000
  85              	.LC2:
  86 0010 443A2064 		.string	"D: dispatch\n"
  86      69737061 
  86      7463680A 
  86      00
  87 001d 000000   		.align	3
  88              	.LC3:
  89 0020 443A2066 		.string	"D: fibonaci="
  89      69626F6E 
GAS LISTING /tmp/ccEDUVVt.s 			page 3


  89      6163693D 
  89      00
  90 002d 000000   		.align	3
  91              	.LC4:
  92 0030 44206669 		.string	"D finished!\n"
  92      6E697368 
  92      6564210A 
  92      00
  93              		.text
  94              		.align	2
  96              	_ZL11workerBodyDPv:
  97              	.LFB37:
  17:test/Threads_C_API_test.cpp **** 
  18:test/Threads_C_API_test.cpp **** static void workerBodyA(void* arg) {
  19:test/Threads_C_API_test.cpp ****     for (uint64 i = 0; i < 10; i++) {
  20:test/Threads_C_API_test.cpp ****         printString("A: i="); printInt(i); printString("\n");
  21:test/Threads_C_API_test.cpp ****         for (uint64 j = 0; j < 10000; j++) {
  22:test/Threads_C_API_test.cpp ****             for (uint64 k = 0; k < 30000; k++) { /* busy wait */ }
  23:test/Threads_C_API_test.cpp ****             thread_dispatch();
  24:test/Threads_C_API_test.cpp ****         }
  25:test/Threads_C_API_test.cpp ****     }
  26:test/Threads_C_API_test.cpp ****     printString("A finished!\n");
  27:test/Threads_C_API_test.cpp ****     finishedA = true;
  28:test/Threads_C_API_test.cpp **** }
  29:test/Threads_C_API_test.cpp **** 
  30:test/Threads_C_API_test.cpp **** static void workerBodyB(void* arg) {
  31:test/Threads_C_API_test.cpp ****     for (uint64 i = 0; i < 16; i++) {
  32:test/Threads_C_API_test.cpp ****         printString("B: i="); printInt(i); printString("\n");
  33:test/Threads_C_API_test.cpp ****         for (uint64 j = 0; j < 10000; j++) {
  34:test/Threads_C_API_test.cpp ****             for (uint64 k = 0; k < 30000; k++) { /* busy wait */ }
  35:test/Threads_C_API_test.cpp ****             thread_dispatch();
  36:test/Threads_C_API_test.cpp ****         }
  37:test/Threads_C_API_test.cpp ****     }
  38:test/Threads_C_API_test.cpp ****     printString("B finished!\n");
  39:test/Threads_C_API_test.cpp ****     finishedB = true;
  40:test/Threads_C_API_test.cpp ****     thread_dispatch();
  41:test/Threads_C_API_test.cpp **** }
  42:test/Threads_C_API_test.cpp **** 
  43:test/Threads_C_API_test.cpp **** static void workerBodyC(void* arg) {
  44:test/Threads_C_API_test.cpp ****     uint8 i = 0;
  45:test/Threads_C_API_test.cpp ****     for (; i < 3; i++) {
  46:test/Threads_C_API_test.cpp ****         printString("C: i="); printInt(i); printString("\n");
  47:test/Threads_C_API_test.cpp ****     }
  48:test/Threads_C_API_test.cpp **** 
  49:test/Threads_C_API_test.cpp ****     printString("C: dispatch\n");
  50:test/Threads_C_API_test.cpp ****     __asm__ ("li t1, 7");
  51:test/Threads_C_API_test.cpp ****     thread_dispatch();
  52:test/Threads_C_API_test.cpp **** 
  53:test/Threads_C_API_test.cpp ****     uint64 t1 = 0;
  54:test/Threads_C_API_test.cpp ****     __asm__ ("mv %[t1], t1" : [t1] "=r"(t1));
  55:test/Threads_C_API_test.cpp **** 
  56:test/Threads_C_API_test.cpp ****     printString("C: t1="); printInt(t1); printString("\n");
  57:test/Threads_C_API_test.cpp **** 
  58:test/Threads_C_API_test.cpp ****     uint64 result = fibonacci(12);
  59:test/Threads_C_API_test.cpp ****     printString("C: fibonaci="); printInt(result); printString("\n");
  60:test/Threads_C_API_test.cpp **** 
  61:test/Threads_C_API_test.cpp ****     for (; i < 6; i++) {
GAS LISTING /tmp/ccEDUVVt.s 			page 4


  62:test/Threads_C_API_test.cpp ****         printString("C: i="); printInt(i); printString("\n");
  63:test/Threads_C_API_test.cpp ****     }
  64:test/Threads_C_API_test.cpp **** 
  65:test/Threads_C_API_test.cpp ****     printString("C finished!\n");
  66:test/Threads_C_API_test.cpp ****     finishedC = true;
  67:test/Threads_C_API_test.cpp ****     thread_dispatch();
  68:test/Threads_C_API_test.cpp **** }
  69:test/Threads_C_API_test.cpp **** 
  70:test/Threads_C_API_test.cpp **** static void workerBodyD(void* arg) {
  98              		.loc 1 70 36 is_stmt 1
  99              		.cfi_startproc
 100              	.LVL7:
 101 0074 130101FE 		addi	sp,sp,-32
 102              		.cfi_def_cfa_offset 32
 103 0078 233C1100 		sd	ra,24(sp)
 104 007c 23388100 		sd	s0,16(sp)
 105 0080 23349100 		sd	s1,8(sp)
 106 0084 23302101 		sd	s2,0(sp)
 107              		.cfi_offset 1, -8
 108              		.cfi_offset 8, -16
 109              		.cfi_offset 9, -24
 110              		.cfi_offset 18, -32
 111 0088 13040102 		addi	s0,sp,32
 112              		.cfi_def_cfa 8, 0
  71:test/Threads_C_API_test.cpp ****     uint8 i = 10;
 113              		.loc 1 71 5
 114              	.LVL8:
 115              		.loc 1 71 11 is_stmt 0
 116 008c 9304A000 		li	s1,10
 117 0090 6F000004 		j	.L9
 118              	.LVL9:
 119              	.L13:
  72:test/Threads_C_API_test.cpp ****     for (; i < 13; i++) {
  73:test/Threads_C_API_test.cpp ****         printString("D: i="); printInt(i); printString("\n");
 120              		.loc 1 73 9 is_stmt 1 discriminator 1
 121              		.loc 1 73 20 is_stmt 0 discriminator 1
 122 0094 17050000 		lla	a0,.LC0
 122      13050500 
 123 009c 97000000 		call	_Z11printStringPKc@plt
 123      E7800000 
 124              	.LVL10:
 125              		.loc 1 73 31 is_stmt 1 discriminator 1
 126              		.loc 1 73 39 is_stmt 0 discriminator 1
 127 00a4 13060000 		li	a2,0
 128 00a8 9305A000 		li	a1,10
 129 00ac 13850400 		mv	a0,s1
 130 00b0 97000000 		call	_Z8printIntiii@plt
 130      E7800000 
 131              	.LVL11:
 132              		.loc 1 73 44 is_stmt 1 discriminator 1
 133              		.loc 1 73 55 is_stmt 0 discriminator 1
 134 00b8 17050000 		lla	a0,.LC1
 134      13050500 
 135 00c0 97000000 		call	_Z11printStringPKc@plt
 135      E7800000 
 136              	.LVL12:
  72:test/Threads_C_API_test.cpp ****     for (; i < 13; i++) {
GAS LISTING /tmp/ccEDUVVt.s 			page 5


 137              		.loc 1 72 5 is_stmt 1 discriminator 1
 138 00c8 9B841400 		addiw	s1,s1,1
 139              	.LVL13:
 140 00cc 93F4F40F 		andi	s1,s1,0xff
 141              	.LVL14:
 142              	.L9:
  72:test/Threads_C_API_test.cpp ****     for (; i < 13; i++) {
 143              		.loc 1 72 5 discriminator 2
  72:test/Threads_C_API_test.cpp ****     for (; i < 13; i++) {
 144              		.loc 1 72 14 discriminator 2
 145 00d0 9307C000 		li	a5,12
 146 00d4 E3F097FC 		bleu	s1,a5,.L13
  74:test/Threads_C_API_test.cpp ****     }
  75:test/Threads_C_API_test.cpp **** 
  76:test/Threads_C_API_test.cpp ****     printString("D: dispatch\n");
 147              		.loc 1 76 5
 148              		.loc 1 76 16 is_stmt 0
 149 00d8 17050000 		lla	a0,.LC2
 149      13050500 
 150 00e0 97000000 		call	_Z11printStringPKc@plt
 150      E7800000 
 151              	.LVL15:
  77:test/Threads_C_API_test.cpp ****     __asm__ ("li t1, 5");
 152              		.loc 1 77 5 is_stmt 1
 153              		.loc 1 77 25 is_stmt 0
 154              	#APP
 155              	# 77 "test/Threads_C_API_test.cpp" 1
  78              	    thread_dispatch();
 156              		li t1, 5
 157              	# 0 "" 2
 158              		.loc 1 78 5 is_stmt 1
 159              		.loc 1 78 20 is_stmt 0
 160              	#NO_APP
 161 00ec 97000000 		call	_Z15thread_dispatchv@plt
 161      E7800000 
 162              	.LVL16:
  79:test/Threads_C_API_test.cpp **** 
  80:test/Threads_C_API_test.cpp ****     uint64 result = fibonacci(16);
 163              		.loc 1 80 5 is_stmt 1
 164              		.loc 1 80 30 is_stmt 0
 165 00f4 13050001 		li	a0,16
 166 00f8 97000000 		call	_ZL9fibonaccim
 166      E7800000 
 167              	.LVL17:
 168 0100 13090500 		mv	s2,a0
 169              	.LVL18:
  81:test/Threads_C_API_test.cpp ****     printString("D: fibonaci="); printInt(result); printString("\n");
 170              		.loc 1 81 5 is_stmt 1
 171              		.loc 1 81 16 is_stmt 0
 172 0104 17050000 		lla	a0,.LC3
 172      13050500 
 173              	.LVL19:
 174 010c 97000000 		call	_Z11printStringPKc@plt
 174      E7800000 
 175              	.LVL20:
 176              		.loc 1 81 34 is_stmt 1
 177              		.loc 1 81 42 is_stmt 0
GAS LISTING /tmp/ccEDUVVt.s 			page 6


 178 0114 13060000 		li	a2,0
 179 0118 9305A000 		li	a1,10
 180 011c 1B050900 		sext.w	a0,s2
 181 0120 97000000 		call	_Z8printIntiii@plt
 181      E7800000 
 182              	.LVL21:
 183              		.loc 1 81 52 is_stmt 1
 184              		.loc 1 81 63 is_stmt 0
 185 0128 17050000 		lla	a0,.LC1
 185      13050500 
 186 0130 97000000 		call	_Z11printStringPKc@plt
 186      E7800000 
 187              	.LVL22:
 188 0138 6F000004 		j	.L11
 189              	.L14:
  82:test/Threads_C_API_test.cpp **** 
  83:test/Threads_C_API_test.cpp ****     for (; i < 16; i++) {
  84:test/Threads_C_API_test.cpp ****         printString("D: i="); printInt(i); printString("\n");
 190              		.loc 1 84 9 is_stmt 1 discriminator 1
 191              		.loc 1 84 20 is_stmt 0 discriminator 1
 192 013c 17050000 		lla	a0,.LC0
 192      13050500 
 193 0144 97000000 		call	_Z11printStringPKc@plt
 193      E7800000 
 194              	.LVL23:
 195              		.loc 1 84 31 is_stmt 1 discriminator 1
 196              		.loc 1 84 39 is_stmt 0 discriminator 1
 197 014c 13060000 		li	a2,0
 198 0150 9305A000 		li	a1,10
 199 0154 13850400 		mv	a0,s1
 200 0158 97000000 		call	_Z8printIntiii@plt
 200      E7800000 
 201              	.LVL24:
 202              		.loc 1 84 44 is_stmt 1 discriminator 1
 203              		.loc 1 84 55 is_stmt 0 discriminator 1
 204 0160 17050000 		lla	a0,.LC1
 204      13050500 
 205 0168 97000000 		call	_Z11printStringPKc@plt
 205      E7800000 
 206              	.LVL25:
  83:test/Threads_C_API_test.cpp ****         printString("D: i="); printInt(i); printString("\n");
 207              		.loc 1 83 5 is_stmt 1 discriminator 1
 208 0170 9B841400 		addiw	s1,s1,1
 209              	.LVL26:
 210 0174 93F4F40F 		andi	s1,s1,0xff
 211              	.LVL27:
 212              	.L11:
  83:test/Threads_C_API_test.cpp ****         printString("D: i="); printInt(i); printString("\n");
 213              		.loc 1 83 5 discriminator 2
  83:test/Threads_C_API_test.cpp ****         printString("D: i="); printInt(i); printString("\n");
 214              		.loc 1 83 14 discriminator 2
 215 0178 9307F000 		li	a5,15
 216 017c E3F097FC 		bleu	s1,a5,.L14
  85:test/Threads_C_API_test.cpp ****     }
  86:test/Threads_C_API_test.cpp **** 
  87:test/Threads_C_API_test.cpp ****     printString("D finished!\n");
 217              		.loc 1 87 5
GAS LISTING /tmp/ccEDUVVt.s 			page 7


 218              		.loc 1 87 16 is_stmt 0
 219 0180 17050000 		lla	a0,.LC4
 219      13050500 
 220 0188 97000000 		call	_Z11printStringPKc@plt
 220      E7800000 
 221              	.LVL28:
  88:test/Threads_C_API_test.cpp ****     finishedD = true;
 222              		.loc 1 88 5 is_stmt 1
 223              		.loc 1 88 15 is_stmt 0
 224 0190 93071000 		li	a5,1
 225 0194 17070000 		sb	a5,.LANCHOR0,a4
 225      2300F700 
  89:test/Threads_C_API_test.cpp ****     thread_dispatch();
 226              		.loc 1 89 5 is_stmt 1
 227              		.loc 1 89 20 is_stmt 0
 228 019c 97000000 		call	_Z15thread_dispatchv@plt
 228      E7800000 
 229              	.LVL29:
  90:test/Threads_C_API_test.cpp **** }
 230              		.loc 1 90 1
 231 01a4 83308101 		ld	ra,24(sp)
 232              		.cfi_restore 1
 233 01a8 03340101 		ld	s0,16(sp)
 234              		.cfi_restore 8
 235              		.cfi_def_cfa 2, 32
 236 01ac 83348100 		ld	s1,8(sp)
 237              		.cfi_restore 9
 238              	.LVL30:
 239 01b0 03390100 		ld	s2,0(sp)
 240              		.cfi_restore 18
 241              	.LVL31:
 242 01b4 13010102 		addi	sp,sp,32
 243              		.cfi_def_cfa_offset 0
 244 01b8 67800000 		jr	ra
 245              		.cfi_endproc
 246              	.LFE37:
 248              		.section	.rodata.str1.8
 249 003d 000000   		.align	3
 250              	.LC5:
 251 0040 433A2069 		.string	"C: i="
 251      3D00
 252 0046 0000     		.align	3
 253              	.LC6:
 254 0048 433A2064 		.string	"C: dispatch\n"
 254      69737061 
 254      7463680A 
 254      00
 255 0055 000000   		.align	3
 256              	.LC7:
 257 0058 433A2074 		.string	"C: t1="
 257      313D00
 258 005f 00       		.align	3
 259              	.LC8:
 260 0060 433A2066 		.string	"C: fibonaci="
 260      69626F6E 
 260      6163693D 
 260      00
GAS LISTING /tmp/ccEDUVVt.s 			page 8


 261 006d 000000   		.align	3
 262              	.LC9:
 263 0070 43206669 		.string	"C finished!\n"
 263      6E697368 
 263      6564210A 
 263      00
 264              		.text
 265              		.align	2
 267              	_ZL11workerBodyCPv:
 268              	.LFB36:
  43:test/Threads_C_API_test.cpp ****     uint8 i = 0;
 269              		.loc 1 43 36 is_stmt 1
 270              		.cfi_startproc
 271              	.LVL32:
 272 01bc 130101FE 		addi	sp,sp,-32
 273              		.cfi_def_cfa_offset 32
 274 01c0 233C1100 		sd	ra,24(sp)
 275 01c4 23388100 		sd	s0,16(sp)
 276 01c8 23349100 		sd	s1,8(sp)
 277 01cc 23302101 		sd	s2,0(sp)
 278              		.cfi_offset 1, -8
 279              		.cfi_offset 8, -16
 280              		.cfi_offset 9, -24
 281              		.cfi_offset 18, -32
 282 01d0 13040102 		addi	s0,sp,32
 283              		.cfi_def_cfa 8, 0
  44:test/Threads_C_API_test.cpp ****     for (; i < 3; i++) {
 284              		.loc 1 44 5
 285              	.LVL33:
  44:test/Threads_C_API_test.cpp ****     for (; i < 3; i++) {
 286              		.loc 1 44 11 is_stmt 0
 287 01d4 93040000 		li	s1,0
 288 01d8 6F000004 		j	.L17
 289              	.LVL34:
 290              	.L21:
  46:test/Threads_C_API_test.cpp ****     }
 291              		.loc 1 46 9 is_stmt 1 discriminator 1
  46:test/Threads_C_API_test.cpp ****     }
 292              		.loc 1 46 20 is_stmt 0 discriminator 1
 293 01dc 17050000 		lla	a0,.LC5
 293      13050500 
 294 01e4 97000000 		call	_Z11printStringPKc@plt
 294      E7800000 
 295              	.LVL35:
  46:test/Threads_C_API_test.cpp ****     }
 296              		.loc 1 46 31 is_stmt 1 discriminator 1
  46:test/Threads_C_API_test.cpp ****     }
 297              		.loc 1 46 39 is_stmt 0 discriminator 1
 298 01ec 13060000 		li	a2,0
 299 01f0 9305A000 		li	a1,10
 300 01f4 13850400 		mv	a0,s1
 301 01f8 97000000 		call	_Z8printIntiii@plt
 301      E7800000 
 302              	.LVL36:
  46:test/Threads_C_API_test.cpp ****     }
 303              		.loc 1 46 44 is_stmt 1 discriminator 1
  46:test/Threads_C_API_test.cpp ****     }
GAS LISTING /tmp/ccEDUVVt.s 			page 9


 304              		.loc 1 46 55 is_stmt 0 discriminator 1
 305 0200 17050000 		lla	a0,.LC1
 305      13050500 
 306 0208 97000000 		call	_Z11printStringPKc@plt
 306      E7800000 
 307              	.LVL37:
  45:test/Threads_C_API_test.cpp ****         printString("C: i="); printInt(i); printString("\n");
 308              		.loc 1 45 5 is_stmt 1 discriminator 1
 309 0210 9B841400 		addiw	s1,s1,1
 310              	.LVL38:
 311 0214 93F4F40F 		andi	s1,s1,0xff
 312              	.LVL39:
 313              	.L17:
  45:test/Threads_C_API_test.cpp ****         printString("C: i="); printInt(i); printString("\n");
 314              		.loc 1 45 5 discriminator 2
  45:test/Threads_C_API_test.cpp ****         printString("C: i="); printInt(i); printString("\n");
 315              		.loc 1 45 14 discriminator 2
 316 0218 93072000 		li	a5,2
 317 021c E3F097FC 		bleu	s1,a5,.L21
  49:test/Threads_C_API_test.cpp ****     __asm__ ("li t1, 7");
 318              		.loc 1 49 5
  49:test/Threads_C_API_test.cpp ****     __asm__ ("li t1, 7");
 319              		.loc 1 49 16 is_stmt 0
 320 0220 17050000 		lla	a0,.LC6
 320      13050500 
 321 0228 97000000 		call	_Z11printStringPKc@plt
 321      E7800000 
 322              	.LVL40:
  50:test/Threads_C_API_test.cpp ****     thread_dispatch();
 323              		.loc 1 50 5 is_stmt 1
  50:test/Threads_C_API_test.cpp ****     thread_dispatch();
 324              		.loc 1 50 25 is_stmt 0
 325              	#APP
 326              	# 50 "test/Threads_C_API_test.cpp" 1
  51:test/Threads_C_API_test.cpp **** 
 327              		li t1, 7
 328              	# 0 "" 2
 329              		.loc 1 51 5 is_stmt 1
  51:test/Threads_C_API_test.cpp **** 
 330              		.loc 1 51 20 is_stmt 0
 331              	#NO_APP
 332 0234 97000000 		call	_Z15thread_dispatchv@plt
 332      E7800000 
 333              	.LVL41:
  53:test/Threads_C_API_test.cpp ****     __asm__ ("mv %[t1], t1" : [t1] "=r"(t1));
 334              		.loc 1 53 5 is_stmt 1
  54:test/Threads_C_API_test.cpp **** 
 335              		.loc 1 54 5
  54:test/Threads_C_API_test.cpp **** 
 336              		.loc 1 54 45 is_stmt 0
 337              	#APP
 338              	# 54 "test/Threads_C_API_test.cpp" 1
 339              		mv s2, t1
 340              	# 0 "" 2
 341              	.LVL42:
  56:test/Threads_C_API_test.cpp **** 
 342              		.loc 1 56 5 is_stmt 1
GAS LISTING /tmp/ccEDUVVt.s 			page 10


  56:test/Threads_C_API_test.cpp **** 
 343              		.loc 1 56 16 is_stmt 0
 344              	#NO_APP
 345 0240 17050000 		lla	a0,.LC7
 345      13050500 
 346 0248 97000000 		call	_Z11printStringPKc@plt
 346      E7800000 
 347              	.LVL43:
  56:test/Threads_C_API_test.cpp **** 
 348              		.loc 1 56 28 is_stmt 1
  56:test/Threads_C_API_test.cpp **** 
 349              		.loc 1 56 36 is_stmt 0
 350 0250 13060000 		li	a2,0
 351 0254 9305A000 		li	a1,10
 352 0258 1B050900 		sext.w	a0,s2
 353 025c 97000000 		call	_Z8printIntiii@plt
 353      E7800000 
 354              	.LVL44:
  56:test/Threads_C_API_test.cpp **** 
 355              		.loc 1 56 42 is_stmt 1
  56:test/Threads_C_API_test.cpp **** 
 356              		.loc 1 56 53 is_stmt 0
 357 0264 17050000 		lla	a0,.LC1
 357      13050500 
 358 026c 97000000 		call	_Z11printStringPKc@plt
 358      E7800000 
 359              	.LVL45:
  58:test/Threads_C_API_test.cpp ****     printString("C: fibonaci="); printInt(result); printString("\n");
 360              		.loc 1 58 5 is_stmt 1
  58:test/Threads_C_API_test.cpp ****     printString("C: fibonaci="); printInt(result); printString("\n");
 361              		.loc 1 58 30 is_stmt 0
 362 0274 1305C000 		li	a0,12
 363 0278 97000000 		call	_ZL9fibonaccim
 363      E7800000 
 364              	.LVL46:
 365 0280 13090500 		mv	s2,a0
 366              	.LVL47:
  59:test/Threads_C_API_test.cpp **** 
 367              		.loc 1 59 5 is_stmt 1
  59:test/Threads_C_API_test.cpp **** 
 368              		.loc 1 59 16 is_stmt 0
 369 0284 17050000 		lla	a0,.LC8
 369      13050500 
 370              	.LVL48:
 371 028c 97000000 		call	_Z11printStringPKc@plt
 371      E7800000 
 372              	.LVL49:
  59:test/Threads_C_API_test.cpp **** 
 373              		.loc 1 59 34 is_stmt 1
  59:test/Threads_C_API_test.cpp **** 
 374              		.loc 1 59 42 is_stmt 0
 375 0294 13060000 		li	a2,0
 376 0298 9305A000 		li	a1,10
 377 029c 1B050900 		sext.w	a0,s2
 378 02a0 97000000 		call	_Z8printIntiii@plt
 378      E7800000 
 379              	.LVL50:
GAS LISTING /tmp/ccEDUVVt.s 			page 11


  59:test/Threads_C_API_test.cpp **** 
 380              		.loc 1 59 52 is_stmt 1
  59:test/Threads_C_API_test.cpp **** 
 381              		.loc 1 59 63 is_stmt 0
 382 02a8 17050000 		lla	a0,.LC1
 382      13050500 
 383 02b0 97000000 		call	_Z11printStringPKc@plt
 383      E7800000 
 384              	.LVL51:
 385 02b8 6F000004 		j	.L19
 386              	.L22:
  62:test/Threads_C_API_test.cpp ****     }
 387              		.loc 1 62 9 is_stmt 1 discriminator 1
  62:test/Threads_C_API_test.cpp ****     }
 388              		.loc 1 62 20 is_stmt 0 discriminator 1
 389 02bc 17050000 		lla	a0,.LC5
 389      13050500 
 390 02c4 97000000 		call	_Z11printStringPKc@plt
 390      E7800000 
 391              	.LVL52:
  62:test/Threads_C_API_test.cpp ****     }
 392              		.loc 1 62 31 is_stmt 1 discriminator 1
  62:test/Threads_C_API_test.cpp ****     }
 393              		.loc 1 62 39 is_stmt 0 discriminator 1
 394 02cc 13060000 		li	a2,0
 395 02d0 9305A000 		li	a1,10
 396 02d4 13850400 		mv	a0,s1
 397 02d8 97000000 		call	_Z8printIntiii@plt
 397      E7800000 
 398              	.LVL53:
  62:test/Threads_C_API_test.cpp ****     }
 399              		.loc 1 62 44 is_stmt 1 discriminator 1
  62:test/Threads_C_API_test.cpp ****     }
 400              		.loc 1 62 55 is_stmt 0 discriminator 1
 401 02e0 17050000 		lla	a0,.LC1
 401      13050500 
 402 02e8 97000000 		call	_Z11printStringPKc@plt
 402      E7800000 
 403              	.LVL54:
  61:test/Threads_C_API_test.cpp ****         printString("C: i="); printInt(i); printString("\n");
 404              		.loc 1 61 5 is_stmt 1 discriminator 1
 405 02f0 9B841400 		addiw	s1,s1,1
 406              	.LVL55:
 407 02f4 93F4F40F 		andi	s1,s1,0xff
 408              	.LVL56:
 409              	.L19:
  61:test/Threads_C_API_test.cpp ****         printString("C: i="); printInt(i); printString("\n");
 410              		.loc 1 61 5 discriminator 2
  61:test/Threads_C_API_test.cpp ****         printString("C: i="); printInt(i); printString("\n");
 411              		.loc 1 61 14 discriminator 2
 412 02f8 93075000 		li	a5,5
 413 02fc E3F097FC 		bleu	s1,a5,.L22
  65:test/Threads_C_API_test.cpp ****     finishedC = true;
 414              		.loc 1 65 5
  65:test/Threads_C_API_test.cpp ****     finishedC = true;
 415              		.loc 1 65 16 is_stmt 0
 416 0300 17050000 		lla	a0,.LC9
GAS LISTING /tmp/ccEDUVVt.s 			page 12


 416      13050500 
 417 0308 97000000 		call	_Z11printStringPKc@plt
 417      E7800000 
 418              	.LVL57:
  66:test/Threads_C_API_test.cpp ****     thread_dispatch();
 419              		.loc 1 66 5 is_stmt 1
  66:test/Threads_C_API_test.cpp ****     thread_dispatch();
 420              		.loc 1 66 15 is_stmt 0
 421 0310 93071000 		li	a5,1
 422 0314 17070000 		sb	a5,.LANCHOR0+1,a4
 422      2300F700 
  67:test/Threads_C_API_test.cpp **** }
 423              		.loc 1 67 5 is_stmt 1
  67:test/Threads_C_API_test.cpp **** }
 424              		.loc 1 67 20 is_stmt 0
 425 031c 97000000 		call	_Z15thread_dispatchv@plt
 425      E7800000 
 426              	.LVL58:
  68:test/Threads_C_API_test.cpp **** 
 427              		.loc 1 68 1
 428 0324 83308101 		ld	ra,24(sp)
 429              		.cfi_restore 1
 430 0328 03340101 		ld	s0,16(sp)
 431              		.cfi_restore 8
 432              		.cfi_def_cfa 2, 32
 433 032c 83348100 		ld	s1,8(sp)
 434              		.cfi_restore 9
 435              	.LVL59:
 436 0330 03390100 		ld	s2,0(sp)
 437              		.cfi_restore 18
 438              	.LVL60:
 439 0334 13010102 		addi	sp,sp,32
 440              		.cfi_def_cfa_offset 0
 441 0338 67800000 		jr	ra
 442              		.cfi_endproc
 443              	.LFE36:
 445              		.section	.rodata.str1.8
 446 007d 000000   		.align	3
 447              	.LC10:
 448 0080 423A2069 		.string	"B: i="
 448      3D00
 449 0086 0000     		.align	3
 450              	.LC11:
 451 0088 42206669 		.string	"B finished!\n"
 451      6E697368 
 451      6564210A 
 451      00
 452              		.text
 453              		.align	2
 455              	_ZL11workerBodyBPv:
 456              	.LFB35:
  30:test/Threads_C_API_test.cpp ****     for (uint64 i = 0; i < 16; i++) {
 457              		.loc 1 30 36 is_stmt 1
 458              		.cfi_startproc
 459              	.LVL61:
 460 033c 130101FE 		addi	sp,sp,-32
 461              		.cfi_def_cfa_offset 32
GAS LISTING /tmp/ccEDUVVt.s 			page 13


 462 0340 233C1100 		sd	ra,24(sp)
 463 0344 23388100 		sd	s0,16(sp)
 464 0348 23349100 		sd	s1,8(sp)
 465 034c 23302101 		sd	s2,0(sp)
 466              		.cfi_offset 1, -8
 467              		.cfi_offset 8, -16
 468              		.cfi_offset 9, -24
 469              		.cfi_offset 18, -32
 470 0350 13040102 		addi	s0,sp,32
 471              		.cfi_def_cfa 8, 0
  31:test/Threads_C_API_test.cpp ****         printString("B: i="); printInt(i); printString("\n");
 472              		.loc 1 31 5
 473              	.LVL62:
 474              	.LBB2:
  31:test/Threads_C_API_test.cpp ****         printString("B: i="); printInt(i); printString("\n");
 475              		.loc 1 31 17 is_stmt 0
 476 0354 13090000 		li	s2,0
 477 0358 6F008003 		j	.L29
 478              	.LVL63:
 479              	.L26:
 480              	.LBB3:
 481              	.LBB4:
 482              	.LBB5:
  35:test/Threads_C_API_test.cpp ****         }
 483              		.loc 1 35 13 is_stmt 1 discriminator 2
  35:test/Threads_C_API_test.cpp ****         }
 484              		.loc 1 35 28 is_stmt 0 discriminator 2
 485 035c 97000000 		call	_Z15thread_dispatchv@plt
 485      E7800000 
 486              	.LVL64:
 487              	.LBE5:
  33:test/Threads_C_API_test.cpp ****             for (uint64 k = 0; k < 30000; k++) { /* busy wait */ }
 488              		.loc 1 33 9 is_stmt 1 discriminator 2
 489 0364 93841400 		addi	s1,s1,1
 490              	.LVL65:
 491              	.L28:
  33:test/Threads_C_API_test.cpp ****             for (uint64 k = 0; k < 30000; k++) { /* busy wait */ }
 492              		.loc 1 33 30 discriminator 1
 493 0368 B7270000 		li	a5,8192
 494 036c 9387F770 		addi	a5,a5,1807
 495 0370 63EE9700 		bgtu	s1,a5,.L25
 496              	.LBB7:
 497              	.LBB6:
  34:test/Threads_C_API_test.cpp ****             thread_dispatch();
 498              		.loc 1 34 25 is_stmt 0
 499 0374 13070000 		li	a4,0
 500              	.L27:
 501              	.LVL66:
  34:test/Threads_C_API_test.cpp ****             thread_dispatch();
 502              		.loc 1 34 34 is_stmt 1 discriminator 3
 503 0378 B7770000 		li	a5,28672
 504 037c 9387F752 		addi	a5,a5,1327
 505 0380 E3EEE7FC 		bgtu	a4,a5,.L26
  34:test/Threads_C_API_test.cpp ****             thread_dispatch();
 506              		.loc 1 34 13 discriminator 2
 507 0384 13071700 		addi	a4,a4,1
 508              	.LVL67:
GAS LISTING /tmp/ccEDUVVt.s 			page 14


 509 0388 6FF01FFF 		j	.L27
 510              	.LVL68:
 511              	.L25:
 512              	.LBE6:
 513              	.LBE7:
 514              	.LBE4:
 515              	.LBE3:
  31:test/Threads_C_API_test.cpp ****         printString("B: i="); printInt(i); printString("\n");
 516              		.loc 1 31 5 discriminator 2
 517 038c 13091900 		addi	s2,s2,1
 518              	.LVL69:
 519              	.L29:
  31:test/Threads_C_API_test.cpp ****         printString("B: i="); printInt(i); printString("\n");
 520              		.loc 1 31 26 discriminator 1
 521 0390 9307F000 		li	a5,15
 522 0394 63E02705 		bgtu	s2,a5,.L24
 523              	.LBB9:
  32:test/Threads_C_API_test.cpp ****         for (uint64 j = 0; j < 10000; j++) {
 524              		.loc 1 32 9
  32:test/Threads_C_API_test.cpp ****         for (uint64 j = 0; j < 10000; j++) {
 525              		.loc 1 32 20 is_stmt 0
 526 0398 17050000 		lla	a0,.LC10
 526      13050500 
 527 03a0 97000000 		call	_Z11printStringPKc@plt
 527      E7800000 
 528              	.LVL70:
  32:test/Threads_C_API_test.cpp ****         for (uint64 j = 0; j < 10000; j++) {
 529              		.loc 1 32 31 is_stmt 1
  32:test/Threads_C_API_test.cpp ****         for (uint64 j = 0; j < 10000; j++) {
 530              		.loc 1 32 39 is_stmt 0
 531 03a8 13060000 		li	a2,0
 532 03ac 9305A000 		li	a1,10
 533 03b0 1B050900 		sext.w	a0,s2
 534 03b4 97000000 		call	_Z8printIntiii@plt
 534      E7800000 
 535              	.LVL71:
  32:test/Threads_C_API_test.cpp ****         for (uint64 j = 0; j < 10000; j++) {
 536              		.loc 1 32 44 is_stmt 1
  32:test/Threads_C_API_test.cpp ****         for (uint64 j = 0; j < 10000; j++) {
 537              		.loc 1 32 55 is_stmt 0
 538 03bc 17050000 		lla	a0,.LC1
 538      13050500 
 539 03c4 97000000 		call	_Z11printStringPKc@plt
 539      E7800000 
 540              	.LVL72:
  33:test/Threads_C_API_test.cpp ****             for (uint64 k = 0; k < 30000; k++) { /* busy wait */ }
 541              		.loc 1 33 9 is_stmt 1
 542              	.LBB8:
  33:test/Threads_C_API_test.cpp ****             for (uint64 k = 0; k < 30000; k++) { /* busy wait */ }
 543              		.loc 1 33 21 is_stmt 0
 544 03cc 93040000 		li	s1,0
 545 03d0 6FF09FF9 		j	.L28
 546              	.LVL73:
 547              	.L24:
 548              	.LBE8:
 549              	.LBE9:
 550              	.LBE2:
GAS LISTING /tmp/ccEDUVVt.s 			page 15


  38:test/Threads_C_API_test.cpp ****     finishedB = true;
 551              		.loc 1 38 5 is_stmt 1
  38:test/Threads_C_API_test.cpp ****     finishedB = true;
 552              		.loc 1 38 16 is_stmt 0
 553 03d4 17050000 		lla	a0,.LC11
 553      13050500 
 554 03dc 97000000 		call	_Z11printStringPKc@plt
 554      E7800000 
 555              	.LVL74:
  39:test/Threads_C_API_test.cpp ****     thread_dispatch();
 556              		.loc 1 39 5 is_stmt 1
  39:test/Threads_C_API_test.cpp ****     thread_dispatch();
 557              		.loc 1 39 15 is_stmt 0
 558 03e4 93071000 		li	a5,1
 559 03e8 17070000 		sb	a5,.LANCHOR0+2,a4
 559      2300F700 
  40:test/Threads_C_API_test.cpp **** }
 560              		.loc 1 40 5 is_stmt 1
  40:test/Threads_C_API_test.cpp **** }
 561              		.loc 1 40 20 is_stmt 0
 562 03f0 97000000 		call	_Z15thread_dispatchv@plt
 562      E7800000 
 563              	.LVL75:
  41:test/Threads_C_API_test.cpp **** 
 564              		.loc 1 41 1
 565 03f8 83308101 		ld	ra,24(sp)
 566              		.cfi_restore 1
 567 03fc 03340101 		ld	s0,16(sp)
 568              		.cfi_restore 8
 569              		.cfi_def_cfa 2, 32
 570 0400 83348100 		ld	s1,8(sp)
 571              		.cfi_restore 9
 572 0404 03390100 		ld	s2,0(sp)
 573              		.cfi_restore 18
 574              	.LVL76:
 575 0408 13010102 		addi	sp,sp,32
 576              		.cfi_def_cfa_offset 0
 577 040c 67800000 		jr	ra
 578              		.cfi_endproc
 579              	.LFE35:
 581              		.section	.rodata.str1.8
 582 0095 000000   		.align	3
 583              	.LC12:
 584 0098 413A2069 		.string	"A: i="
 584      3D00
 585 009e 0000     		.align	3
 586              	.LC13:
 587 00a0 41206669 		.string	"A finished!\n"
 587      6E697368 
 587      6564210A 
 587      00
 588              		.text
 589              		.align	2
 591              	_ZL11workerBodyAPv:
 592              	.LFB34:
  18:test/Threads_C_API_test.cpp ****     for (uint64 i = 0; i < 10; i++) {
 593              		.loc 1 18 36 is_stmt 1
GAS LISTING /tmp/ccEDUVVt.s 			page 16


 594              		.cfi_startproc
 595              	.LVL77:
 596 0410 130101FE 		addi	sp,sp,-32
 597              		.cfi_def_cfa_offset 32
 598 0414 233C1100 		sd	ra,24(sp)
 599 0418 23388100 		sd	s0,16(sp)
 600 041c 23349100 		sd	s1,8(sp)
 601 0420 23302101 		sd	s2,0(sp)
 602              		.cfi_offset 1, -8
 603              		.cfi_offset 8, -16
 604              		.cfi_offset 9, -24
 605              		.cfi_offset 18, -32
 606 0424 13040102 		addi	s0,sp,32
 607              		.cfi_def_cfa 8, 0
  19:test/Threads_C_API_test.cpp ****         printString("A: i="); printInt(i); printString("\n");
 608              		.loc 1 19 5
 609              	.LVL78:
 610              	.LBB10:
  19:test/Threads_C_API_test.cpp ****         printString("A: i="); printInt(i); printString("\n");
 611              		.loc 1 19 17 is_stmt 0
 612 0428 13090000 		li	s2,0
 613 042c 6F008003 		j	.L37
 614              	.LVL79:
 615              	.L34:
 616              	.LBB11:
 617              	.LBB12:
 618              	.LBB13:
  23:test/Threads_C_API_test.cpp ****         }
 619              		.loc 1 23 13 is_stmt 1 discriminator 2
  23:test/Threads_C_API_test.cpp ****         }
 620              		.loc 1 23 28 is_stmt 0 discriminator 2
 621 0430 97000000 		call	_Z15thread_dispatchv@plt
 621      E7800000 
 622              	.LVL80:
 623              	.LBE13:
  21:test/Threads_C_API_test.cpp ****             for (uint64 k = 0; k < 30000; k++) { /* busy wait */ }
 624              		.loc 1 21 9 is_stmt 1 discriminator 2
 625 0438 93841400 		addi	s1,s1,1
 626              	.LVL81:
 627              	.L36:
  21:test/Threads_C_API_test.cpp ****             for (uint64 k = 0; k < 30000; k++) { /* busy wait */ }
 628              		.loc 1 21 30 discriminator 1
 629 043c B7270000 		li	a5,8192
 630 0440 9387F770 		addi	a5,a5,1807
 631 0444 63EE9700 		bgtu	s1,a5,.L33
 632              	.LBB15:
 633              	.LBB14:
  22:test/Threads_C_API_test.cpp ****             thread_dispatch();
 634              		.loc 1 22 25 is_stmt 0
 635 0448 13070000 		li	a4,0
 636              	.L35:
 637              	.LVL82:
  22:test/Threads_C_API_test.cpp ****             thread_dispatch();
 638              		.loc 1 22 34 is_stmt 1 discriminator 3
 639 044c B7770000 		li	a5,28672
 640 0450 9387F752 		addi	a5,a5,1327
 641 0454 E3EEE7FC 		bgtu	a4,a5,.L34
GAS LISTING /tmp/ccEDUVVt.s 			page 17


  22:test/Threads_C_API_test.cpp ****             thread_dispatch();
 642              		.loc 1 22 13 discriminator 2
 643 0458 13071700 		addi	a4,a4,1
 644              	.LVL83:
 645 045c 6FF01FFF 		j	.L35
 646              	.LVL84:
 647              	.L33:
 648              	.LBE14:
 649              	.LBE15:
 650              	.LBE12:
 651              	.LBE11:
  19:test/Threads_C_API_test.cpp ****         printString("A: i="); printInt(i); printString("\n");
 652              		.loc 1 19 5 discriminator 2
 653 0460 13091900 		addi	s2,s2,1
 654              	.LVL85:
 655              	.L37:
  19:test/Threads_C_API_test.cpp ****         printString("A: i="); printInt(i); printString("\n");
 656              		.loc 1 19 26 discriminator 1
 657 0464 93079000 		li	a5,9
 658 0468 63E02705 		bgtu	s2,a5,.L32
 659              	.LBB17:
  20:test/Threads_C_API_test.cpp ****         for (uint64 j = 0; j < 10000; j++) {
 660              		.loc 1 20 9
  20:test/Threads_C_API_test.cpp ****         for (uint64 j = 0; j < 10000; j++) {
 661              		.loc 1 20 20 is_stmt 0
 662 046c 17050000 		lla	a0,.LC12
 662      13050500 
 663 0474 97000000 		call	_Z11printStringPKc@plt
 663      E7800000 
 664              	.LVL86:
  20:test/Threads_C_API_test.cpp ****         for (uint64 j = 0; j < 10000; j++) {
 665              		.loc 1 20 31 is_stmt 1
  20:test/Threads_C_API_test.cpp ****         for (uint64 j = 0; j < 10000; j++) {
 666              		.loc 1 20 39 is_stmt 0
 667 047c 13060000 		li	a2,0
 668 0480 9305A000 		li	a1,10
 669 0484 1B050900 		sext.w	a0,s2
 670 0488 97000000 		call	_Z8printIntiii@plt
 670      E7800000 
 671              	.LVL87:
  20:test/Threads_C_API_test.cpp ****         for (uint64 j = 0; j < 10000; j++) {
 672              		.loc 1 20 44 is_stmt 1
  20:test/Threads_C_API_test.cpp ****         for (uint64 j = 0; j < 10000; j++) {
 673              		.loc 1 20 55 is_stmt 0
 674 0490 17050000 		lla	a0,.LC1
 674      13050500 
 675 0498 97000000 		call	_Z11printStringPKc@plt
 675      E7800000 
 676              	.LVL88:
  21:test/Threads_C_API_test.cpp ****             for (uint64 k = 0; k < 30000; k++) { /* busy wait */ }
 677              		.loc 1 21 9 is_stmt 1
 678              	.LBB16:
  21:test/Threads_C_API_test.cpp ****             for (uint64 k = 0; k < 30000; k++) { /* busy wait */ }
 679              		.loc 1 21 21 is_stmt 0
 680 04a0 93040000 		li	s1,0
 681 04a4 6FF09FF9 		j	.L36
 682              	.LVL89:
GAS LISTING /tmp/ccEDUVVt.s 			page 18


 683              	.L32:
 684              	.LBE16:
 685              	.LBE17:
 686              	.LBE10:
  26:test/Threads_C_API_test.cpp ****     finishedA = true;
 687              		.loc 1 26 5 is_stmt 1
  26:test/Threads_C_API_test.cpp ****     finishedA = true;
 688              		.loc 1 26 16 is_stmt 0
 689 04a8 17050000 		lla	a0,.LC13
 689      13050500 
 690 04b0 97000000 		call	_Z11printStringPKc@plt
 690      E7800000 
 691              	.LVL90:
  27:test/Threads_C_API_test.cpp **** }
 692              		.loc 1 27 5 is_stmt 1
  27:test/Threads_C_API_test.cpp **** }
 693              		.loc 1 27 15 is_stmt 0
 694 04b8 93071000 		li	a5,1
 695 04bc 17070000 		sb	a5,.LANCHOR0+3,a4
 695      2300F700 
  28:test/Threads_C_API_test.cpp **** 
 696              		.loc 1 28 1
 697 04c4 83308101 		ld	ra,24(sp)
 698              		.cfi_restore 1
 699 04c8 03340101 		ld	s0,16(sp)
 700              		.cfi_restore 8
 701              		.cfi_def_cfa 2, 32
 702 04cc 83348100 		ld	s1,8(sp)
 703              		.cfi_restore 9
 704 04d0 03390100 		ld	s2,0(sp)
 705              		.cfi_restore 18
 706              	.LVL91:
 707 04d4 13010102 		addi	sp,sp,32
 708              		.cfi_def_cfa_offset 0
 709 04d8 67800000 		jr	ra
 710              		.cfi_endproc
 711              	.LFE34:
 713              		.section	.rodata.str1.8
 714 00ad 000000   		.align	3
 715              	.LC14:
 716 00b0 54687265 		.string	"ThreadA created\n"
 716      61644120 
 716      63726561 
 716      7465640A 
 716      00
 717 00c1 00000000 		.align	3
 717      000000
 718              	.LC15:
 719 00c8 54687265 		.string	"ThreadB created\n"
 719      61644220 
 719      63726561 
 719      7465640A 
 719      00
 720 00d9 00000000 		.align	3
 720      000000
 721              	.LC16:
 722 00e0 54687265 		.string	"ThreadC created\n"
GAS LISTING /tmp/ccEDUVVt.s 			page 19


 722      61644320 
 722      63726561 
 722      7465640A 
 722      00
 723 00f1 00000000 		.align	3
 723      000000
 724              	.LC17:
 725 00f8 54687265 		.string	"ThreadD created\n"
 725      61644420 
 725      63726561 
 725      7465640A 
 725      00
 726              		.text
 727              		.align	2
 728              		.globl	_Z18Threads_C_API_testv
 730              	_Z18Threads_C_API_testv:
 731              	.LFB38:
  91:test/Threads_C_API_test.cpp **** 
  92:test/Threads_C_API_test.cpp **** 
  93:test/Threads_C_API_test.cpp **** void Threads_C_API_test() {
 732              		.loc 1 93 27 is_stmt 1
 733              		.cfi_startproc
 734 04dc 130101FD 		addi	sp,sp,-48
 735              		.cfi_def_cfa_offset 48
 736 04e0 23341102 		sd	ra,40(sp)
 737 04e4 23308102 		sd	s0,32(sp)
 738              		.cfi_offset 1, -8
 739              		.cfi_offset 8, -16
 740 04e8 13040103 		addi	s0,sp,48
 741              		.cfi_def_cfa 8, 0
  94:test/Threads_C_API_test.cpp ****     thread_t threads[4];
 742              		.loc 1 94 5
  95:test/Threads_C_API_test.cpp ****     thread_create(&threads[0], workerBodyA, nullptr);
 743              		.loc 1 95 5
 744              		.loc 1 95 18 is_stmt 0
 745 04ec 13060000 		li	a2,0
 746 04f0 97050000 		lla	a1,_ZL11workerBodyAPv
 746      93850500 
 747 04f8 130504FD 		addi	a0,s0,-48
 748 04fc 97000000 		call	_Z13thread_createPP3TCBPFvPvES2_@plt
 748      E7800000 
 749              	.LVL92:
  96:test/Threads_C_API_test.cpp ****     printString("ThreadA created\n");
 750              		.loc 1 96 5 is_stmt 1
 751              		.loc 1 96 16 is_stmt 0
 752 0504 17050000 		lla	a0,.LC14
 752      13050500 
 753 050c 97000000 		call	_Z11printStringPKc@plt
 753      E7800000 
 754              	.LVL93:
  97:test/Threads_C_API_test.cpp **** 
  98:test/Threads_C_API_test.cpp ****     thread_create(&threads[1], workerBodyB, nullptr);
 755              		.loc 1 98 5 is_stmt 1
 756              		.loc 1 98 18 is_stmt 0
 757 0514 13060000 		li	a2,0
 758 0518 97050000 		lla	a1,_ZL11workerBodyBPv
 758      93850500 
GAS LISTING /tmp/ccEDUVVt.s 			page 20


 759 0520 130584FD 		addi	a0,s0,-40
 760 0524 97000000 		call	_Z13thread_createPP3TCBPFvPvES2_@plt
 760      E7800000 
 761              	.LVL94:
  99:test/Threads_C_API_test.cpp ****     printString("ThreadB created\n");
 762              		.loc 1 99 5 is_stmt 1
 763              		.loc 1 99 16 is_stmt 0
 764 052c 17050000 		lla	a0,.LC15
 764      13050500 
 765 0534 97000000 		call	_Z11printStringPKc@plt
 765      E7800000 
 766              	.LVL95:
 100:test/Threads_C_API_test.cpp **** 
 101:test/Threads_C_API_test.cpp ****     thread_create(&threads[2], workerBodyC, nullptr);
 767              		.loc 1 101 5 is_stmt 1
 768              		.loc 1 101 18 is_stmt 0
 769 053c 13060000 		li	a2,0
 770 0540 97050000 		lla	a1,_ZL11workerBodyCPv
 770      93850500 
 771 0548 130504FE 		addi	a0,s0,-32
 772 054c 97000000 		call	_Z13thread_createPP3TCBPFvPvES2_@plt
 772      E7800000 
 773              	.LVL96:
 102:test/Threads_C_API_test.cpp ****     printString("ThreadC created\n");
 774              		.loc 1 102 5 is_stmt 1
 775              		.loc 1 102 16 is_stmt 0
 776 0554 17050000 		lla	a0,.LC16
 776      13050500 
 777 055c 97000000 		call	_Z11printStringPKc@plt
 777      E7800000 
 778              	.LVL97:
 103:test/Threads_C_API_test.cpp **** 
 104:test/Threads_C_API_test.cpp ****     thread_create(&threads[3], workerBodyD, nullptr);
 779              		.loc 1 104 5 is_stmt 1
 780              		.loc 1 104 18 is_stmt 0
 781 0564 13060000 		li	a2,0
 782 0568 97050000 		lla	a1,_ZL11workerBodyDPv
 782      93850500 
 783 0570 130584FE 		addi	a0,s0,-24
 784 0574 97000000 		call	_Z13thread_createPP3TCBPFvPvES2_@plt
 784      E7800000 
 785              	.LVL98:
 105:test/Threads_C_API_test.cpp ****     printString("ThreadD created\n");
 786              		.loc 1 105 5 is_stmt 1
 787              		.loc 1 105 16 is_stmt 0
 788 057c 17050000 		lla	a0,.LC17
 788      13050500 
 789 0584 97000000 		call	_Z11printStringPKc@plt
 789      E7800000 
 790              	.LVL99:
 791 058c 6F00C000 		j	.L41
 792              	.L40:
 106:test/Threads_C_API_test.cpp **** 
 107:test/Threads_C_API_test.cpp ****     while (!(finishedA && finishedB && finishedC && finishedD)) {
 108:test/Threads_C_API_test.cpp ****         thread_dispatch();
 793              		.loc 1 108 9 is_stmt 1
 794              		.loc 1 108 24 is_stmt 0
GAS LISTING /tmp/ccEDUVVt.s 			page 21


 795 0590 97000000 		call	_Z15thread_dispatchv@plt
 795      E7800000 
 796              	.LVL100:
 797              	.L41:
 107:test/Threads_C_API_test.cpp ****         thread_dispatch();
 798              		.loc 1 107 5 is_stmt 1
 107:test/Threads_C_API_test.cpp ****         thread_dispatch();
 799              		.loc 1 107 12
 107:test/Threads_C_API_test.cpp ****         thread_dispatch();
 800              		.loc 1 107 14 is_stmt 0
 801 0598 97070000 		lbu	a5,.LANCHOR0+3
 801      83C70700 
 107:test/Threads_C_API_test.cpp ****         thread_dispatch();
 802              		.loc 1 107 12
 803 05a0 E38807FE 		beqz	a5,.L40
 107:test/Threads_C_API_test.cpp ****         thread_dispatch();
 804              		.loc 1 107 27 discriminator 2
 805 05a4 97070000 		lbu	a5,.LANCHOR0+2
 805      83C70700 
 107:test/Threads_C_API_test.cpp ****         thread_dispatch();
 806              		.loc 1 107 24 discriminator 2
 807 05ac E38207FE 		beqz	a5,.L40
 107:test/Threads_C_API_test.cpp ****         thread_dispatch();
 808              		.loc 1 107 40 discriminator 4
 809 05b0 97070000 		lbu	a5,.LANCHOR0+1
 809      83C70700 
 107:test/Threads_C_API_test.cpp ****         thread_dispatch();
 810              		.loc 1 107 37 discriminator 4
 811 05b8 E38C07FC 		beqz	a5,.L40
 107:test/Threads_C_API_test.cpp ****         thread_dispatch();
 812              		.loc 1 107 53 discriminator 6
 813 05bc 97070000 		lbu	a5,.LANCHOR0
 813      83C70700 
 107:test/Threads_C_API_test.cpp ****         thread_dispatch();
 814              		.loc 1 107 12 discriminator 6
 815 05c4 E38607FC 		beqz	a5,.L40
 109:test/Threads_C_API_test.cpp ****     }
 110:test/Threads_C_API_test.cpp **** 
 111:test/Threads_C_API_test.cpp **** }
 816              		.loc 1 111 1
 817 05c8 83308102 		ld	ra,40(sp)
 818              		.cfi_restore 1
 819 05cc 03340102 		ld	s0,32(sp)
 820              		.cfi_restore 8
 821              		.cfi_def_cfa 2, 48
 822 05d0 13010103 		addi	sp,sp,48
 823              		.cfi_def_cfa_offset 0
 824 05d4 67800000 		jr	ra
 825              		.cfi_endproc
 826              	.LFE38:
 828              		.bss
 829              		.set	.LANCHOR0,. + 0
 832              	_ZL9finishedD:
 833 0000 00       		.zero	1
 836              	_ZL9finishedC:
 837 0001 00       		.zero	1
 840              	_ZL9finishedB:
GAS LISTING /tmp/ccEDUVVt.s 			page 22


 841 0002 00       		.zero	1
 844              	_ZL9finishedA:
 845 0003 00       		.zero	1
 846              		.text
 847              	.Letext0:
 848              		.file 2 "test/../h/../lib/hw.h"
 849              		.file 3 "test/../h/../h/TCB.hpp"
 850              		.file 4 "test/../h/syscall_c.hpp"
 851              		.file 5 "test/printing.hpp"
GAS LISTING /tmp/ccEDUVVt.s 			page 23

